(dp0
S'METTS MARK'
p1
(dp2
S'to_messages'
p3
F807.0
sS'deferral_payments'
p4
F0.0
sS'adjusted_payments'
p5
S'NaN'
p6
sS'outbox_poi_ratio'
p7
F0.034482758620689655
sS'expenses'
p8
F94299.0
sS'total_benefits'
p9
F1646889.0
sS'poi'
p10
I00
sS'long_term_incentive'
p11
F0.0
sS'email_address'
p12
S'mark.metts@enron.com'
p13
sS'from_poi_to_this_person'
p14
F38.0
sS'payment_to_stock_value_ratio'
p15
S'NaN'
p16
sS'deferred_income'
p17
F0.0
sS'restricted_stock_deferred'
p18
S'NaN'
p19
sS'shared_receipt_with_poi'
p20
F702.0
sS'loan_advances'
p21
F0.0
sS'from_messages'
p22
F29.0
sS'other'
p23
F1740.0
sS'director_fees'
p24
F0.0
sS'logPayments'
p25
F6.026054173336237
sS'poi_inbox_outbox_ratio'
p26
F38.0
sS'bonus'
p27
F600000.0
sS'total_stock_value'
p28
F585062.0
sS'from_this_person_to_poi'
p29
F1.0
sS'restricted_stock'
p30
F585062.0
sS'salary'
p31
F365788.0
sS'total_payments'
p32
F1061827.0
sS'salary_ratio'
p33
S'NaN'
p34
sS'shared_poi_ratio'
p35
F0.8698884758364313
sS'payments_score'
p36
I4
sS'exercised_stock_options'
p37
S'NaN'
p38
sS'inbox_poi_ratio'
p39
F0.04708798017348203
ssS'BAXTER JOHN C'
p40
(dp41
g3
S'NaN'
p42
sg4
F1295738.0
sg5
F4338605.0
sg7
S'NaN'
p43
sg8
F11200.0
sg9
F16257601.0
sg10
I00
sg11
F1586055.0
sg12
S'NaN'
p44
sg14
S'NaN'
p45
sg15
F2.4485423310027072
sg17
F-1386055.0
sg18
g19
sg20
S'NaN'
p46
sg21
F0.0
sg22
S'NaN'
p47
sg23
F2660303.0
sg24
F0.0
sg25
F6.750843358933216
sg26
S'NaN'
p48
sg27
F1200000.0
sg28
F10623258.0
sg29
S'NaN'
p49
sg30
F3942714.0
sg31
F267102.0
sg32
F5634343.0
sg33
F0.06156402806892999
sg35
S'NaN'
p50
sg36
I7
sg37
F6680544.0
sg39
S'NaN'
p51
ssS'ELLIOTT STEVEN'
p52
(dp53
g3
g42
sg4
F0.0
sg5
g6
sg7
g43
sg8
F78552.0
sg9
F6890460.0
sg10
I00
sg11
F0.0
sg12
S'steven.elliott@enron.com'
p54
sg14
g45
sg15
g16
sg17
F-400729.0
sg18
g19
sg20
g46
sg21
F0.0
sg22
g47
sg23
F12961.0
sg24
F0.0
sg25
F5.325774192753433
sg26
g48
sg27
F350000.0
sg28
F6678735.0
sg29
g49
sg30
F1788391.0
sg31
F170941.0
sg32
F211725.0
sg33
g34
sg35
g50
sg36
I5
sg37
F4890344.0
sg39
g51
ssS'CORDES WILLIAM R'
p55
(dp56
g3
F764.0
sg4
F0.0
sg5
g6
sg7
F0.0
sg8
F0.0
sg9
S'NaN'
p57
sg10
I00
sg11
F0.0
sg12
S'bill.cordes@enron.com'
p58
sg14
F10.0
sg15
g16
sg17
F0.0
sg18
g19
sg20
F58.0
sg21
F0.0
sg22
F12.0
sg23
F0.0
sg24
F0.0
sg25
S'NaN'
p59
sg26
g48
sg27
F0.0
sg28
F1038185.0
sg29
F0.0
sg30
F386335.0
sg31
F0.0
sg32
S'NaN'
p60
sg33
g34
sg35
F0.07591623036649214
sg36
I0
sg37
F651850.0
sg39
F0.013089005235602094
ssS'HANNON KEVIN P'
p61
(dp62
g3
F1045.0
sg4
F0.0
sg5
g6
sg7
F0.65625
sg8
F34039.0
sg9
F6679747.0
sg10
I01
sg11
F1617011.0
sg12
S'kevin.hannon@enron.com'
p63
sg14
F32.0
sg15
g16
sg17
F-3117011.0
sg18
g19
sg20
F1035.0
sg21
F0.0
sg22
F32.0
sg23
F11350.0
sg24
F0.0
sg25
F5.460421209846866
sg26
F1.5238095238095237
sg27
F1500000.0
sg28
F6391065.0
sg29
F21.0
sg30
F853064.0
sg31
F243293.0
sg32
F288682.0
sg33
g34
sg35
F0.9904306220095693
sg36
I6
sg37
F5538001.0
sg39
F0.03062200956937799
ssS'MORDAUNT KRISTINA M'
p64
(dp65
g3
g42
sg4
F0.0
sg5
g6
sg7
g43
sg8
F35018.0
sg9
F837032.0
sg10
I00
sg11
F0.0
sg12
S'kristina.mordaunt@enron.com'
p66
sg14
g45
sg15
g16
sg17
F0.0
sg18
g19
sg20
g46
sg21
F0.0
sg22
g47
sg23
F1411.0
sg24
F0.0
sg25
F5.798321174767113
sg26
g48
sg27
F325000.0
sg28
F208510.0
sg29
g49
sg30
F208510.0
sg31
F267093.0
sg32
F628522.0
sg33
g34
sg35
g50
sg36
I4
sg37
g38
sg39
g51
ssS'MEYER ROCKFORD G'
p67
(dp68
g3
F232.0
sg4
F1848227.0
sg5
F0.0
sg7
F0.0
sg8
F0.0
sg9
F2804100.0
sg10
I00
sg11
F0.0
sg12
S'rockford.meyer@enron.com'
p69
sg14
F0.0
sg15
g16
sg17
F0.0
sg18
g19
sg20
F22.0
sg21
F0.0
sg22
F28.0
sg23
F0.0
sg24
F0.0
sg25
F6.266755545365718
sg26
g48
sg27
F0.0
sg28
F955873.0
sg29
F0.0
sg30
F462384.0
sg31
F0.0
sg32
F1848227.0
sg33
g34
sg35
F0.09482758620689655
sg36
I1
sg37
F493489.0
sg39
F0.0
ssS'MCMAHON JEFFREY'
p70
(dp71
g3
F2355.0
sg4
F0.0
sg5
g6
sg7
F0.5416666666666666
sg8
F137108.0
sg9
F5762626.0
sg10
I00
sg11
F694862.0
sg12
S'jeffrey.mcmahon@enron.com'
p72
sg14
F58.0
sg15
g16
sg17
F0.0
sg18
g19
sg20
F2228.0
sg21
F0.0
sg22
F48.0
sg23
F297353.0
sg24
F0.0
sg25
F6.612759705037981
sg26
F2.230769230769231
sg27
F2600000.0
sg28
F1662855.0
sg29
F26.0
sg30
F558801.0
sg31
F370448.0
sg32
F4099771.0
sg33
g34
sg35
F0.9460721868365181
sg36
I5
sg37
F1104054.0
sg39
F0.024628450106157114
ssS'HORTON STANLEY C'
p73
(dp74
g3
F2350.0
sg4
F3131860.0
sg5
F0.0
sg7
F0.013979496738117428
sg8
F0.0
sg9
F10388508.0
sg10
I00
sg11
F0.0
sg12
S'stanley.horton@enron.com'
p75
sg14
F44.0
sg15
g16
sg17
F0.0
sg18
g19
sg20
F1074.0
sg21
F0.0
sg22
F1073.0
sg23
F0.0
sg24
F0.0
sg25
F6.495802478713944
sg26
F2.933333333333333
sg27
F0.0
sg28
F7256648.0
sg29
F15.0
sg30
F2046079.0
sg31
F0.0
sg32
F3131860.0
sg33
g34
sg35
F0.4570212765957447
sg36
I1
sg37
F5210569.0
sg39
F0.01872340425531915
ssS'PIPER GREGORY F'
p76
(dp77
g3
F1238.0
sg4
F1130036.0
sg5
F607593.0
sg7
F0.21621621621621623
sg8
F43057.0
sg9
F2617919.0
sg10
I00
sg11
F0.0
sg12
S'greg.piper@enron.com'
p78
sg14
F61.0
sg15
F1.4488152430985874
sg17
F-33333.0
sg18
F-409554.0
sg20
F742.0
sg21
F0.0
sg22
F222.0
sg23
F778.0
sg24
F0.0
sg25
F6.239957306022235
sg26
F1.2708333333333333
sg27
F400000.0
sg28
F880290.0
sg29
F48.0
sg30
F409554.0
sg31
F197091.0
sg32
F1737629.0
sg33
F0.32437997146115904
sg35
F0.5993537964458805
sg36
I6
sg37
F880290.0
sg39
F0.049273021001615507
ssS'HUMPHREY GENE E'
p79
(dp80
g3
F128.0
sg4
F2964506.0
sg5
F135718.0
sg7
F1.0
sg8
F4994.0
sg9
F5382992.0
sg10
I00
sg11
F0.0
sg12
S'gene.humphrey@enron.com'
p81
sg14
F10.0
sg15
F16.81993545439809
sg17
F0.0
sg18
g19
sg20
F119.0
sg21
F0.0
sg22
F17.0
sg23
F0.0
sg24
F0.0
sg25
F6.491393214064094
sg26
F0.5882352941176471
sg27
F0.0
sg28
F2282768.0
sg29
F17.0
sg30
S'NaN'
p82
sg31
F130724.0
sg32
F3100224.0
sg33
F0.9632031123358729
sg35
F0.9296875
sg36
I3
sg37
F2282768.0
sg39
F0.078125
ssS'UMANOFF ADAM S'
p83
(dp84
g3
F111.0
sg4
F0.0
sg5
g6
sg7
F0.0
sg8
F53122.0
sg9
g57
sg10
I00
sg11
F0.0
sg12
S'adam.umanoff@enron.com'
p85
sg14
F12.0
sg15
g16
sg17
F0.0
sg18
g19
sg20
F41.0
sg21
F0.0
sg22
F18.0
sg23
F0.0
sg24
F0.0
sg25
F6.053255968302181
sg26
g48
sg27
F788750.0
sg28
S'NaN'
p86
sg29
F0.0
sg30
g82
sg31
F288589.0
sg32
F1130461.0
sg33
g34
sg35
F0.36936936936936937
sg36
I3
sg37
g38
sg39
F0.10810810810810811
ssS'BLACHMAN JEREMY M'
p87
(dp88
g3
F2475.0
sg4
F0.0
sg5
g6
sg7
F0.14285714285714285
sg8
F84208.0
sg9
F2969189.0
sg10
I00
sg11
F831809.0
sg12
S'jeremy.blachman@enron.com'
p89
sg14
F25.0
sg15
g16
sg17
F0.0
sg18
g19
sg20
F2326.0
sg21
F0.0
sg22
F14.0
sg23
F272.0
sg24
F0.0
sg25
F6.304239701993929
sg26
F12.5
sg27
F850000.0
sg28
F954354.0
sg29
F2.0
sg30
F189041.0
sg31
F248546.0
sg32
F2014835.0
sg33
g34
sg35
F0.9397979797979797
sg36
I5
sg37
F765313.0
sg39
F0.010101010101010102
ssS'SUNDE MARTIN'
p90
(dp91
g3
F2647.0
sg4
F0.0
sg5
g6
sg7
F0.34210526315789475
sg8
F0.0
sg9
F2243979.0
sg10
I00
sg11
F476451.0
sg12
S'marty.sunde@enron.com'
p92
sg14
F37.0
sg15
g16
sg17
F0.0
sg18
g19
sg20
F2565.0
sg21
F0.0
sg22
F38.0
sg23
F111122.0
sg24
F0.0
sg25
F6.188945349238493
sg26
F2.8461538461538463
sg27
F700000.0
sg28
F698920.0
sg29
F13.0
sg30
F698920.0
sg31
F257486.0
sg32
F1545059.0
sg33
g34
sg35
F0.9690215338118625
sg36
I4
sg37
g38
sg39
F0.013978088401964487
ssS'GIBBS DANA R'
p93
(dp94
g3
F169.0
sg4
F504610.0
sg5
F461912.0
sg7
F0.0
sg8
F0.0
sg9
F3184797.0
sg10
I00
sg11
F461912.0
sg12
S'dana.gibbs@enron.com'
p95
sg14
F0.0
sg15
F4.802375777204316
sg17
F0.0
sg18
g19
sg20
F23.0
sg21
F0.0
sg22
F12.0
sg23
F0.0
sg24
F0.0
sg25
F5.985212193237032
sg26
g48
sg27
F0.0
sg28
F2218275.0
sg29
F0.0
sg30
g82
sg31
F0.0
sg32
F966522.0
sg33
g34
sg35
F0.13609467455621302
sg36
I2
sg37
F2218275.0
sg39
F0.0
ssS'LOWRY CHARLES P'
p96
(dp97
g3
g42
sg4
F0.0
sg5
g6
sg7
g43
sg8
F0.0
sg9
g57
sg10
I00
sg11
F0.0
sg12
g44
sg14
g45
sg15
g16
sg17
F0.0
sg18
F-153686.0
sg20
g46
sg21
F0.0
sg22
g47
sg23
F0.0
sg24
F0.0
sg25
g59
sg26
g48
sg27
F0.0
sg28
F372205.0
sg29
g49
sg30
F153686.0
sg31
F0.0
sg32
g60
sg33
g34
sg35
g50
sg36
I0
sg37
F372205.0
sg39
g51
ssS'COLWELL WESLEY'
p98
(dp99
g3
F1758.0
sg4
F27610.0
sg5
F1462734.0
sg7
F0.275
sg8
F16514.0
sg9
F2188586.0
sg10
I01
sg11
F0.0
sg12
S'wes.colwell@enron.com'
p100
sg14
F240.0
sg15
F0.47735405070231496
sg17
F-144062.0
sg18
g19
sg20
F1132.0
sg21
F0.0
sg22
F40.0
sg23
F101740.0
sg24
F0.0
sg25
F6.173286814890568
sg26
F21.818181818181817
sg27
F1200000.0
sg28
F698242.0
sg29
F11.0
sg30
F698242.0
sg31
F288542.0
sg32
F1490344.0
sg33
F0.19726211327555113
sg35
F0.6439135381114903
sg36
I6
sg37
g38
sg39
F0.13651877133105803
ssS'MULLER MARK S'
p101
(dp102
g3
F136.0
sg4
F842924.0
sg5
F2359146.0
sg7
F0.0
sg8
F0.0
sg9
F4618918.0
sg10
I00
sg11
F1725545.0
sg12
S's..muller@enron.com'
p103
sg14
F12.0
sg15
F0.60057664934684
sg17
F-719000.0
sg18
g19
sg20
F114.0
sg21
F0.0
sg22
F16.0
sg23
F947.0
sg24
F0.0
sg25
F6.505430957366653
sg26
g48
sg27
F1100000.0
sg28
F1416848.0
sg29
F0.0
sg30
F360528.0
sg31
F251654.0
sg32
F3202070.0
sg33
F0.1066716515213556
sg35
F0.8382352941176471
sg36
I6
sg37
F1056320.0
sg39
F0.08823529411764706
ssS'JACKSON CHARLENE R'
p104
(dp105
g3
F258.0
sg4
F0.0
sg5
g6
sg7
F0.3392857142857143
sg8
F10181.0
sg9
F1276909.0
sg10
I00
sg11
F0.0
sg12
S'charlene.jackson@enron.com'
p106
sg14
F25.0
sg15
g16
sg17
F0.0
sg18
g19
sg20
F117.0
sg21
F0.0
sg22
F56.0
sg23
F2435.0
sg24
F0.0
sg25
F5.741289510771347
sg26
F1.3157894736842106
sg27
F250000.0
sg28
F725735.0
sg29
F19.0
sg30
F540672.0
sg31
F288558.0
sg32
F551174.0
sg33
g34
sg35
F0.45348837209302323
sg36
I4
sg37
F185063.0
sg39
F0.09689922480620156
ssS'WESTFAHL RICHARD K'
p107
(dp108
g3
g42
sg4
F0.0
sg5
g6
sg7
g43
sg8
F51870.0
sg9
F1147065.0
sg10
I00
sg11
F256191.0
sg12
S'dick.westfahl@enron.com'
p109
sg14
g45
sg15
g16
sg17
F-10800.0
sg18
g19
sg20
g46
sg21
F0.0
sg22
g47
sg23
F401130.0
sg24
F0.0
sg25
F5.882032476299388
sg26
g48
sg27
F0.0
sg28
F384930.0
sg29
g49
sg30
F384930.0
sg31
F63744.0
sg32
F762135.0
sg33
g34
sg35
g50
sg36
I5
sg37
g38
sg39
g51
ssS'WALTERS GARETH W'
p110
(dp111
g3
g42
sg4
F53625.0
sg5
F33785.0
sg7
g43
sg8
F33785.0
sg9
F1117739.0
sg10
I00
sg11
F0.0
sg12
g44
sg14
g45
sg15
F30.496640520941245
sg17
F0.0
sg18
g19
sg20
g46
sg21
F0.0
sg22
g47
sg23
F0.0
sg24
F0.0
sg25
F4.94156608868359
sg26
g48
sg27
F0.0
sg28
F1030329.0
sg29
g49
sg30
g82
sg31
F0.0
sg32
F87410.0
sg33
g34
sg35
g50
sg36
I2
sg37
F1030329.0
sg39
g51
ssS'WALLS JR ROBERT H'
p112
(dp113
g3
F671.0
sg4
F0.0
sg5
g6
sg7
F0.0
sg8
F50936.0
sg9
F7697777.0
sg10
I00
sg11
F540751.0
sg12
S'rob.walls@enron.com'
p114
sg14
F17.0
sg15
g16
sg17
F0.0
sg18
g19
sg20
F215.0
sg21
F0.0
sg22
F146.0
sg23
F2.0
sg24
F0.0
sg25
F6.254978291593961
sg26
g48
sg27
F850000.0
sg28
F5898997.0
sg29
F0.0
sg30
F1552453.0
sg31
F357091.0
sg32
F1798780.0
sg33
g34
sg35
F0.3204172876304024
sg36
I5
sg37
F4346544.0
sg39
F0.02533532041728763
ssS'KITCHEN LOUISE'
p115
(dp116
g3
F8305.0
sg4
F0.0
sg5
g6
sg7
F0.11226851851851852
sg8
F5774.0
sg9
F4018284.0
sg10
I00
sg11
F0.0
sg12
S'louise.kitchen@enron.com'
p117
sg14
F251.0
sg15
g16
sg17
F0.0
sg18
g19
sg20
F3669.0
sg21
F0.0
sg22
F1728.0
sg23
F93925.0
sg24
F0.0
sg25
F6.540472380469164
sg26
F1.2938144329896908
sg27
F3100000.0
sg28
F547143.0
sg29
F194.0
sg30
F466101.0
sg31
F271442.0
sg32
F3471141.0
sg33
g34
sg35
F0.441782059000602
sg36
I4
sg37
F81042.0
sg39
F0.030222757375075255
ssS'CHAN RONNIE'
p118
(dp119
g3
g42
sg4
F0.0
sg5
g6
sg7
g43
sg8
F0.0
sg9
g57
sg10
I00
sg11
F0.0
sg12
g44
sg14
g45
sg15
g16
sg17
F-98784.0
sg18
F-32460.0
sg20
g46
sg21
F0.0
sg22
g47
sg23
F0.0
sg24
F98784.0
sg25
g59
sg26
g48
sg27
F0.0
sg28
g86
sg29
g49
sg30
F32460.0
sg31
F0.0
sg32
g60
sg33
g34
sg35
g50
sg36
I2
sg37
g38
sg39
g51
ssS'BELFER ROBERT'
p120
(dp121
g3
g42
sg4
F-102500.0
sg5
F205000.0
sg7
g43
sg8
F0.0
sg9
F58407.0
sg10
I00
sg11
F0.0
sg12
g44
sg14
g45
sg15
F-0.2150878048780488
sg17
F0.0
sg18
F44093.0
sg20
g46
sg21
F0.0
sg22
g47
sg23
F0.0
sg24
F3285.0
sg25
F5.01072810239044
sg26
g48
sg27
F0.0
sg28
F-44093.0
sg29
g49
sg30
g82
sg31
F0.0
sg32
F102500.0
sg33
g34
sg35
g50
sg36
I2
sg37
F3285.0
sg39
g51
ssS'SHANKMAN JEFFREY A'
p122
(dp123
g3
F3221.0
sg4
F0.0
sg5
g6
sg7
F0.030958597538232
sg8
F178979.0
sg9
F5110737.0
sg10
I00
sg11
F554422.0
sg12
S'jeffrey.shankman@enron.com'
p124
sg14
F94.0
sg15
g16
sg17
F0.0
sg18
g19
sg20
F1730.0
sg21
F0.0
sg22
F2681.0
sg23
F1191.0
sg24
F0.0
sg25
F6.482688254616178
sg26
F1.1325301204819278
sg27
F2000000.0
sg28
F2072035.0
sg29
F83.0
sg30
F630137.0
sg31
F304110.0
sg32
F3038702.0
sg33
g34
sg35
F0.5371002794163303
sg36
I5
sg37
F1441898.0
sg39
F0.029183483390251473
ssS'WODRASKA JOHN'
p125
(dp126
g3
g42
sg4
F0.0
sg5
g6
sg7
g43
sg8
F0.0
sg9
g57
sg10
I00
sg11
F0.0
sg12
S'john.wodraska@enron.com'
p127
sg14
g45
sg15
g16
sg17
F0.0
sg18
g19
sg20
g46
sg21
F0.0
sg22
g47
sg23
F189583.0
sg24
F0.0
sg25
F5.277801682132208
sg26
g48
sg27
F0.0
sg28
g86
sg29
g49
sg30
g82
sg31
F0.0
sg32
F189583.0
sg33
g34
sg35
g50
sg36
I1
sg37
g38
sg39
g51
ssS'BERGSIEKER RICHARD P'
p128
(dp129
g3
F383.0
sg4
F0.0
sg5
g6
sg7
F0.0
sg8
F59175.0
sg9
F1278099.0
sg10
I00
sg11
F180250.0
sg12
S'rick.bergsieker@enron.com'
p130
sg14
F4.0
sg15
g16
sg17
F-485813.0
sg18
g19
sg20
F233.0
sg21
F0.0
sg22
F59.0
sg23
F427316.0
sg24
F0.0
sg25
F5.79158609705366
sg26
g48
sg27
F250000.0
sg28
F659249.0
sg29
F0.0
sg30
F659249.0
sg31
F187922.0
sg32
F618850.0
sg33
g34
sg35
F0.608355091383812
sg36
I6
sg37
g38
sg39
F0.010443864229765013
ssS'URQUHART JOHN A'
p131
(dp132
g3
g42
sg4
F0.0
sg5
g6
sg7
g43
sg8
F228656.0
sg9
g57
sg10
I00
sg11
F0.0
sg12
g44
sg14
g45
sg15
g16
sg17
F-36666.0
sg18
g19
sg20
g46
sg21
F0.0
sg22
g47
sg23
F0.0
sg24
F36666.0
sg25
F5.359184501211296
sg26
g48
sg27
F0.0
sg28
g86
sg29
g49
sg30
g82
sg31
F0.0
sg32
F228656.0
sg33
g34
sg35
g50
sg36
I3
sg37
g38
sg39
g51
ssS'BIBI PHILIPPE A'
p133
(dp134
g3
F1607.0
sg4
F0.0
sg5
g6
sg7
F0.2
sg8
F38559.0
sg9
F3891409.0
sg10
I00
sg11
F369721.0
sg12
S'philippe.bibi@enron.com'
p135
sg14
F23.0
sg15
g16
sg17
F0.0
sg18
g19
sg20
F1336.0
sg21
F0.0
sg22
F40.0
sg23
F425688.0
sg24
F0.0
sg25
F6.311243848280674
sg26
F2.875
sg27
F1000000.0
sg28
F1843816.0
sg29
F8.0
sg30
F378082.0
sg31
F213625.0
sg32
F2047593.0
sg33
g34
sg35
F0.8313627878033603
sg36
I5
sg37
F1465734.0
sg39
F0.01431238332296204
ssS'PIRO JIM'
p136
(dp137
g3
F58.0
sg4
F0.0
sg5
g6
sg7
F0.0625
sg8
F0.0
sg9
g57
sg10
I00
sg11
F0.0
sg12
S'jim.piro@enron.com'
p138
sg14
F0.0
sg15
g16
sg17
F0.0
sg18
g19
sg20
F3.0
sg21
F0.0
sg22
F16.0
sg23
F0.0
sg24
F0.0
sg25
g59
sg26
F0.0
sg27
F0.0
sg28
F47304.0
sg29
F1.0
sg30
F47304.0
sg31
F0.0
sg32
g60
sg33
g34
sg35
F0.05172413793103448
sg36
I0
sg37
g38
sg39
F0.0
ssS'RIEKER PAULA H'
p139
(dp140
g3
F1328.0
sg4
F214678.0
sg5
F884422.0
sg7
F0.5853658536585366
sg8
F33271.0
sg9
F3017987.0
sg10
I01
sg11
F0.0
sg12
S'paula.rieker@enron.com'
p141
sg14
F35.0
sg15
F2.169650913251819
sg17
F-100000.0
sg18
g19
sg20
F1258.0
sg21
F0.0
sg22
F82.0
sg23
F1950.0
sg24
F0.0
sg25
F6.041037603003308
sg26
F0.7291666666666666
sg27
F700000.0
sg28
F1918887.0
sg29
F48.0
sg30
F283649.0
sg31
F249201.0
sg32
F1099100.0
sg33
F0.28176707499361164
sg35
F0.947289156626506
sg36
I6
sg37
F1635238.0
sg39
F0.02635542168674699
ssS'WHALEY DAVID A'
p142
(dp143
g3
g42
sg4
F0.0
sg5
g6
sg7
g43
sg8
F0.0
sg9
g57
sg10
I00
sg11
F0.0
sg12
g44
sg14
g45
sg15
g16
sg17
F0.0
sg18
g19
sg20
g46
sg21
F0.0
sg22
g47
sg23
F0.0
sg24
F0.0
sg25
g59
sg26
g48
sg27
F0.0
sg28
F98718.0
sg29
g49
sg30
g82
sg31
F0.0
sg32
g60
sg33
g34
sg35
g50
sg36
I0
sg37
F98718.0
sg39
g51
ssS'BECK SALLY W'
p144
(dp145
g3
F7315.0
sg4
F0.0
sg5
g6
sg7
F0.08887865530739121
sg8
F37172.0
sg9
F1095095.0
sg10
I00
sg11
F0.0
sg12
S'sally.beck@enron.com'
p146
sg14
F144.0
sg15
g16
sg17
F0.0
sg18
g19
sg20
F2639.0
sg21
F0.0
sg22
F4343.0
sg23
F566.0
sg24
F0.0
sg25
F5.98635470094384
sg26
F0.37305699481865284
sg27
F700000.0
sg28
F126027.0
sg29
F386.0
sg30
F126027.0
sg31
F231330.0
sg32
F969068.0
sg33
g34
sg35
F0.36076555023923446
sg36
I4
sg37
g38
sg39
F0.01968557758031442
ssS'HAUG DAVID L'
p147
(dp148
g3
F573.0
sg4
F0.0
sg5
g6
sg7
F0.3684210526315789
sg8
F475.0
sg9
F2217774.0
sg10
I00
sg11
F0.0
sg12
S'david.haug@enron.com'
p149
sg14
F4.0
sg15
g16
sg17
F0.0
sg18
g19
sg20
F471.0
sg21
F0.0
sg22
F19.0
sg23
F0.0
sg24
F0.0
sg25
F2.677606952720493
sg26
F0.5714285714285714
sg27
F0.0
sg28
F2217299.0
sg29
F7.0
sg30
F2217299.0
sg31
F0.0
sg32
F475.0
sg33
g34
sg35
F0.8219895287958116
sg36
I1
sg37
g38
sg39
F0.006980802792321117
ssS'ECHOLS JOHN B'
p150
(dp151
g3
g42
sg4
F0.0
sg5
g6
sg7
g43
sg8
F21530.0
sg9
F3701265.0
sg10
I00
sg11
F2234774.0
sg12
S'john.echols@enron.com'
p152
sg14
g45
sg15
g16
sg17
F0.0
sg18
g19
sg20
g46
sg21
F0.0
sg22
g47
sg23
F53775.0
sg24
F0.0
sg25
F6.430127483927563
sg26
g48
sg27
F200000.0
sg28
F1008941.0
sg29
g49
sg30
F407503.0
sg31
F182245.0
sg32
F2692324.0
sg33
g34
sg35
g50
sg36
I5
sg37
F601438.0
sg39
g51
ssS'MENDELSOHN JOHN'
p153
(dp154
g3
g42
sg4
F0.0
sg5
g6
sg7
g43
sg8
F148.0
sg9
g57
sg10
I00
sg11
F0.0
sg12
g44
sg14
g45
sg15
g16
sg17
F-103750.0
sg18
g19
sg20
g46
sg21
F0.0
sg22
g47
sg23
F0.0
sg24
F103750.0
sg25
F2.173186268412274
sg26
g48
sg27
F0.0
sg28
g86
sg29
g49
sg30
g82
sg31
F0.0
sg32
F148.0
sg33
g34
sg35
g50
sg36
I3
sg37
g38
sg39
g51
ssS'HICKERSON GARY J'
p155
(dp156
g3
F1320.0
sg4
F0.0
sg5
g6
sg7
F0.037037037037037035
sg8
F98849.0
sg9
F2522892.0
sg10
I00
sg11
F69223.0
sg12
S'gary.hickerson@enron.com'
p157
sg14
F40.0
sg15
g16
sg17
F0.0
sg18
g19
sg20
F900.0
sg21
F0.0
sg22
F27.0
sg23
F1936.0
sg24
F0.0
sg25
F6.318438378355066
sg26
F40.0
sg27
F1700000.0
sg28
F441096.0
sg29
F1.0
sg30
F441096.0
sg31
F211788.0
sg32
F2081796.0
sg33
g34
sg35
F0.6818181818181818
sg36
I5
sg37
g38
sg39
F0.030303030303030304
ssS'CLINE KENNETH W'
p158
(dp159
g3
g42
sg4
F0.0
sg5
g6
sg7
g43
sg8
F0.0
sg9
g57
sg10
I00
sg11
F0.0
sg12
g44
sg14
g45
sg15
g16
sg17
F0.0
sg18
F-472568.0
sg20
g46
sg21
F0.0
sg22
g47
sg23
F0.0
sg24
F0.0
sg25
g59
sg26
g48
sg27
F0.0
sg28
F189518.0
sg29
g49
sg30
F662086.0
sg31
F0.0
sg32
g60
sg33
g34
sg35
g50
sg36
I0
sg37
g38
sg39
g51
ssS'LEWIS RICHARD'
p160
(dp161
g3
F952.0
sg4
F0.0
sg5
g6
sg7
F0.0
sg8
F0.0
sg9
g57
sg10
I00
sg11
F0.0
sg12
S'richard.lewis@enron.com'
p162
sg14
F10.0
sg15
g16
sg17
F0.0
sg18
g19
sg20
F739.0
sg21
F0.0
sg22
F26.0
sg23
F0.0
sg24
F0.0
sg25
g59
sg26
g48
sg27
F0.0
sg28
F850477.0
sg29
F0.0
sg30
g82
sg31
F0.0
sg32
g60
sg33
g34
sg35
F0.7762605042016807
sg36
I0
sg37
F850477.0
sg39
F0.01050420168067227
ssS'HAYES ROBERT E'
p163
(dp164
g3
F504.0
sg4
F7961.0
sg5
F0.0
sg7
F0.0
sg8
F0.0
sg9
F159379.0
sg10
I00
sg11
F0.0
sg12
S'robert.hayes@enron.com'
p165
sg14
F16.0
sg15
g16
sg17
F0.0
sg18
g19
sg20
F50.0
sg21
F0.0
sg22
F12.0
sg23
F0.0
sg24
F0.0
sg25
F3.901022173248079
sg26
g48
sg27
F0.0
sg28
F151418.0
sg29
F0.0
sg30
F151418.0
sg31
F0.0
sg32
F7961.0
sg33
g34
sg35
F0.0992063492063492
sg36
I1
sg37
g38
sg39
F0.031746031746031744
ssS'KOPPER MICHAEL J'
p166
(dp167
g3
g42
sg4
F0.0
sg5
g6
sg7
g43
sg8
F118134.0
sg9
F3637644.0
sg10
I01
sg11
F602671.0
sg12
S'michael.kopper@enron.com'
p168
sg14
g45
sg15
g16
sg17
F0.0
sg18
g19
sg20
g46
sg21
F0.0
sg22
g47
sg23
F907502.0
sg24
F0.0
sg25
F6.42367389369728
sg26
g48
sg27
F800000.0
sg28
F985032.0
sg29
g49
sg30
F985032.0
sg31
F224305.0
sg32
F2652612.0
sg33
g34
sg35
g50
sg36
I5
sg37
g38
sg39
g51
ssS'LEFF DANIEL P'
p169
(dp170
g3
F2822.0
sg4
F0.0
sg5
g6
sg7
F0.2222222222222222
sg8
F0.0
sg9
F3024756.0
sg10
I00
sg11
F1387399.0
sg12
S'dan.leff@enron.com'
p171
sg14
F67.0
sg15
g16
sg17
F0.0
sg18
g19
sg20
F2672.0
sg21
F0.0
sg22
F63.0
sg23
F3083.0
sg24
F0.0
sg25
F6.425571551264796
sg26
F4.785714285714286
sg27
F1000000.0
sg28
F360528.0
sg29
F14.0
sg30
F360528.0
sg31
F273746.0
sg32
F2664228.0
sg33
g34
sg35
F0.9468462083628633
sg36
I4
sg37
g38
sg39
F0.02374202693125443
ssS'LAVORATO JOHN J'
p172
(dp173
g3
F7259.0
sg4
F0.0
sg5
g6
sg7
F0.15899419729206962
sg8
F49537.0
sg9
F15592901.0
sg10
I00
sg11
F2035380.0
sg12
S'john.lavorato@enron.com'
p174
sg14
F528.0
sg15
g16
sg17
F0.0
sg18
g19
sg20
F3962.0
sg21
F0.0
sg22
F2585.0
sg23
F1552.0
sg24
F0.0
sg25
F7.01810763997673
sg26
F1.2846715328467153
sg27
F8000000.0
sg28
F5167144.0
sg29
F411.0
sg30
F1008149.0
sg31
F339288.0
sg32
F10425757.0
sg33
g34
sg35
F0.5458052073288332
sg36
I5
sg37
F4158995.0
sg39
F0.07273729163796666
ssS'BERBERIAN DAVID'
p175
(dp176
g3
g42
sg4
F0.0
sg5
g6
sg7
g43
sg8
F11892.0
sg9
F2722090.0
sg10
I00
sg11
F0.0
sg12
S'david.berberian@enron.com'
p177
sg14
g45
sg15
g16
sg17
F0.0
sg18
g19
sg20
g46
sg21
F0.0
sg22
g47
sg23
F0.0
sg24
F0.0
sg25
F5.358838685998698
sg26
g48
sg27
F0.0
sg28
F2493616.0
sg29
g49
sg30
F869220.0
sg31
F216582.0
sg32
F228474.0
sg33
g34
sg35
g50
sg36
I2
sg37
F1624396.0
sg39
g51
ssS'DETMERING TIMOTHY J'
p178
(dp179
g3
g42
sg4
F875307.0
sg5
F329276.0
sg7
g43
sg8
F52255.0
sg9
F3232448.0
sg10
I00
sg11
F415657.0
sg12
S'timothy.detmering@enron.com'
p180
sg14
g45
sg15
F6.158556955259417
sg17
F-775241.0
sg18
F-315068.0
sg20
g46
sg21
F0.0
sg22
g47
sg23
F1105.0
sg24
F0.0
sg25
F6.0808370903156685
sg26
g48
sg27
F425000.0
sg28
F2027865.0
sg29
g49
sg30
F315068.0
sg31
F210500.0
sg32
F1204583.0
sg33
F0.6392813323777014
sg35
g50
sg36
I7
sg37
F2027865.0
sg39
g51
ssS'WAKEHAM JOHN'
p181
(dp182
g3
g42
sg4
F0.0
sg5
g6
sg7
g43
sg8
F103773.0
sg9
g57
sg10
I00
sg11
F0.0
sg12
g44
sg14
g45
sg15
g16
sg17
F0.0
sg18
g19
sg20
g46
sg21
F0.0
sg22
g47
sg23
F0.0
sg24
F109298.0
sg25
F5.328526382400954
sg26
g48
sg27
F0.0
sg28
g86
sg29
g49
sg30
g82
sg31
F0.0
sg32
F213071.0
sg33
g34
sg35
g50
sg36
I2
sg37
g38
sg39
g51
ssS'POWERS WILLIAM'
p183
(dp184
g3
F653.0
sg4
F0.0
sg5
g6
sg7
F0.0
sg8
F0.0
sg9
g57
sg10
I00
sg11
F0.0
sg12
S'ken.powers@enron.com'
p185
sg14
F0.0
sg15
g16
sg17
F-17500.0
sg18
g19
sg20
F12.0
sg21
F0.0
sg22
F26.0
sg23
F0.0
sg24
F17500.0
sg25
g59
sg26
g48
sg27
F0.0
sg28
g86
sg29
F0.0
sg30
g82
sg31
F0.0
sg32
g60
sg33
g34
sg35
F0.018376722817764167
sg36
I2
sg37
g38
sg39
F0.0
ssS'GOLD JOSEPH'
p186
(dp187
g3
g42
sg4
F0.0
sg5
g6
sg7
g43
sg8
F0.0
sg9
F3024584.0
sg10
I00
sg11
F304805.0
sg12
S'joe.gold@enron.com'
p188
sg14
g45
sg15
g16
sg17
F0.0
sg18
g19
sg20
g46
sg21
F0.0
sg22
g47
sg23
F819288.0
sg24
F0.0
sg25
F6.331826785132615
sg26
g48
sg27
F750000.0
sg28
F877611.0
sg29
g49
sg30
F441096.0
sg31
F272880.0
sg32
F2146973.0
sg33
g34
sg35
g50
sg36
I4
sg37
F436515.0
sg39
g51
ssS'BANNANTINE JAMES M'
p189
(dp190
g3
F566.0
sg4
F0.0
sg5
g6
sg7
F0.0
sg8
F56301.0
sg9
F6159684.0
sg10
I00
sg11
F0.0
sg12
S'james.bannantine@enron.com'
p191
sg14
F39.0
sg15
g16
sg17
F-5104.0
sg18
F-560222.0
sg20
F465.0
sg21
F0.0
sg22
F29.0
sg23
F864523.0
sg24
F0.0
sg25
F5.961989339404798
sg26
g48
sg27
F0.0
sg28
F5243487.0
sg29
F0.0
sg30
F1757552.0
sg31
F477.0
sg32
F916197.0
sg33
g34
sg35
F0.8215547703180212
sg36
I4
sg37
F4046157.0
sg39
F0.06890459363957598
ssS'DUNCAN JOHN H'
p192
(dp193
g3
g42
sg4
F0.0
sg5
g6
sg7
g43
sg8
F0.0
sg9
F449242.0
sg10
I00
sg11
F0.0
sg12
g44
sg14
g45
sg15
g16
sg17
F-25000.0
sg18
g19
sg20
g46
sg21
F0.0
sg22
g47
sg23
F0.0
sg24
F102492.0
sg25
F4.889262474136315
sg26
g48
sg27
F0.0
sg28
F371750.0
sg29
g49
sg30
g82
sg31
F0.0
sg32
F77492.0
sg33
g34
sg35
g50
sg36
I2
sg37
F371750.0
sg39
g51
ssS'SHAPIRO RICHARD S'
p194
(dp195
g3
F15149.0
sg4
F0.0
sg5
g6
sg7
F0.053497942386831275
sg8
F137767.0
sg9
F2044549.0
sg10
I00
sg11
F0.0
sg12
S'richard.shapiro@enron.com'
p196
sg14
F74.0
sg15
g16
sg17
F0.0
sg18
g19
sg20
F4527.0
sg21
F0.0
sg22
F1215.0
sg23
F705.0
sg24
F0.0
sg25
F6.024300498918576
sg26
F1.1384615384615384
sg27
F650000.0
sg28
F987001.0
sg29
F65.0
sg30
F379164.0
sg31
F269076.0
sg32
F1057548.0
sg33
g34
sg35
F0.29883160604660375
sg36
I4
sg37
F607837.0
sg39
F0.0048848108786058485
ssS'SHERRIFF JOHN R'
p197
(dp198
g3
F3187.0
sg4
F0.0
sg5
g6
sg7
F0.25
sg8
F0.0
sg9
F7464370.0
sg10
I00
sg11
F554422.0
sg12
S'john.sherriff@enron.com'
p199
sg14
F28.0
sg15
g16
sg17
F0.0
sg18
g19
sg20
F2103.0
sg21
F0.0
sg22
F92.0
sg23
F1852186.0
sg24
F0.0
sg25
F6.637028071356403
sg26
F1.2173913043478262
sg27
F1500000.0
sg28
F3128982.0
sg29
F23.0
sg30
F1293424.0
sg31
F428780.0
sg32
F4335388.0
sg33
g34
sg35
F0.6598682146219015
sg36
I4
sg37
F1835558.0
sg39
F0.008785691873235017
ssS'SHELBY REX'
p200
(dp201
g3
F225.0
sg4
F0.0
sg5
g6
sg7
F0.358974358974359
sg8
F22884.0
sg9
F4497501.0
sg10
I01
sg11
F0.0
sg12
S'rex.shelby@enron.com'
p202
sg14
F13.0
sg15
g16
sg17
F-4167.0
sg18
g19
sg20
F91.0
sg21
F0.0
sg22
F39.0
sg23
F1573324.0
sg24
F0.0
sg25
F6.301873011117765
sg26
F0.9285714285714286
sg27
F200000.0
sg28
F2493616.0
sg29
F14.0
sg30
F869220.0
sg31
F211844.0
sg32
F2003885.0
sg33
g34
sg35
F0.40444444444444444
sg36
I5
sg37
F1624396.0
sg39
F0.057777777777777775
ssS'LEMAISTRE CHARLES'
p203
(dp204
g3
g42
sg4
F0.0
sg5
g6
sg7
g43
sg8
F0.0
sg9
F500370.0
sg10
I00
sg11
F0.0
sg12
g44
sg14
g45
sg15
g16
sg17
F-25000.0
sg18
g19
sg20
g46
sg21
F0.0
sg22
g47
sg23
F0.0
sg24
F112492.0
sg25
F4.941973308073944
sg26
g48
sg27
F0.0
sg28
F412878.0
sg29
g49
sg30
g82
sg31
F0.0
sg32
F87492.0
sg33
g34
sg35
g50
sg36
I2
sg37
F412878.0
sg39
g51
ssS'DEFFNER JOSEPH M'
p205
(dp206
g3
F714.0
sg4
F0.0
sg5
g6
sg7
F0.05405405405405406
sg8
F41626.0
sg9
F1367860.0
sg10
I00
sg11
F335349.0
sg12
S'joseph.deffner@enron.com'
p207
sg14
F115.0
sg15
g16
sg17
F0.0
sg18
g19
sg20
F552.0
sg21
F0.0
sg22
F74.0
sg23
F25553.0
sg24
F0.0
sg25
F6.0823005563818535
sg26
F28.75
sg27
F600000.0
sg28
F159211.0
sg29
F4.0
sg30
F141833.0
sg31
F206121.0
sg32
F1208649.0
sg33
g34
sg35
F0.773109243697479
sg36
I5
sg37
F17378.0
sg39
F0.16106442577030813
ssS'KISHKILL JOSEPH G'
p208
(dp209
g3
g42
sg4
F0.0
sg5
g6
sg7
g43
sg8
F116335.0
sg9
F1739242.0
sg10
I00
sg11
F0.0
sg12
S'joe.kishkill@enron.com'
p210
sg14
g45
sg15
g16
sg17
F-51042.0
sg18
g19
sg20
g46
sg21
F0.0
sg22
g47
sg23
F465357.0
sg24
F0.0
sg25
F5.848125662240143
sg26
g48
sg27
F0.0
sg28
F1034346.0
sg29
g49
sg30
F1034346.0
sg31
F174246.0
sg32
F704896.0
sg33
g34
sg35
g50
sg36
I4
sg37
g38
sg39
g51
ssS'WHALLEY LAWRENCE G'
p211
(dp212
g3
F6019.0
sg4
F0.0
sg5
g6
sg7
F0.04316546762589928
sg8
F57838.0
sg9
F10756711.0
sg10
I00
sg11
F808346.0
sg12
S'greg.whalley@enron.com'
p213
sg14
F186.0
sg15
g16
sg17
F0.0
sg18
g19
sg20
F3920.0
sg21
F0.0
sg22
F556.0
sg23
F301026.0
sg24
F0.0
sg25
F6.670020759683541
sg26
F7.75
sg27
F3000000.0
sg28
F6079137.0
sg29
F24.0
sg30
F2796177.0
sg31
F510364.0
sg32
F4677574.0
sg33
g34
sg35
F0.6512709752450573
sg36
I5
sg37
F3282960.0
sg39
F0.03090214321315833
ssS'MCCARTY DANNY J'
p214
(dp215
g3
F1433.0
sg4
F0.0
sg5
g6
sg7
F0.009302325581395349
sg8
F0.0
sg9
g57
sg10
I00
sg11
F0.0
sg12
S'danny.mccarty@enron.com'
p216
sg14
F25.0
sg15
g16
sg17
F0.0
sg18
g19
sg20
F508.0
sg21
F0.0
sg22
F215.0
sg23
F0.0
sg24
F0.0
sg25
g59
sg26
F12.5
sg27
F0.0
sg28
F758931.0
sg29
F2.0
sg30
F94556.0
sg31
F0.0
sg32
g60
sg33
g34
sg35
F0.35450104675505933
sg36
I0
sg37
F664375.0
sg39
F0.017445917655268667
ssS'MCCONNELL MICHAEL S'
p217
(dp218
g3
F3329.0
sg4
F0.0
sg5
g6
sg7
F0.07075127644055434
sg8
F81364.0
sg9
F5202643.0
sg10
I00
sg11
F554422.0
sg12
S'mike.mcconnell@enron.com'
p219
sg14
F92.0
sg15
g16
sg17
F0.0
sg18
g19
sg20
F2189.0
sg21
F0.0
sg22
F2742.0
sg23
F540.0
sg24
F0.0
sg25
F6.322501494442184
sg26
F0.4742268041237113
sg27
F1100000.0
sg28
F3101279.0
sg29
F194.0
sg30
F1478269.0
sg31
F365038.0
sg32
F2101364.0
sg33
g34
sg35
F0.657554821267648
sg36
I5
sg37
F1623010.0
sg39
F0.02763592670471613
ssS'DELAINEY DAVID W'
p220
(dp221
g3
F3093.0
sg4
F0.0
sg5
g6
sg7
F0.198435972629521
sg8
F86174.0
sg9
F8362240.0
sg10
I01
sg11
F1294981.0
sg12
S'david.delainey@enron.com'
p222
sg14
F66.0
sg15
g16
sg17
F0.0
sg18
g19
sg20
F2097.0
sg21
F0.0
sg22
F3069.0
sg23
F1661.0
sg24
F0.0
sg25
F6.676508880900091
sg26
F0.10837438423645321
sg27
F3000000.0
sg28
F3614261.0
sg29
F609.0
sg30
F1323148.0
sg31
F365163.0
sg32
F4747979.0
sg33
g34
sg35
F0.6779825412221144
sg36
I5
sg37
F2291113.0
sg39
F0.02133850630455868
ssS'SULLIVAN-SHAKLOVITZ COLLEEN'
p223
(dp224
g3
g42
sg4
F181993.0
sg5
F817363.0
sg7
g43
sg8
F0.0
sg9
F2361731.0
sg10
I00
sg11
F554422.0
sg12
g44
sg14
g45
sg15
F1.6667930894841092
sg17
F0.0
sg18
g19
sg20
g46
sg21
F0.0
sg22
g47
sg23
F162.0
sg24
F0.0
sg25
F5.999720658830323
sg26
g48
sg27
F100000.0
sg28
F1362375.0
sg29
g49
sg30
g82
sg31
F162779.0
sg32
F999356.0
sg33
F0.19915141742408207
sg35
g50
sg36
I5
sg37
F1362375.0
sg39
g51
ssS'WROBEL BRUCE'
p225
(dp226
g3
g42
sg4
F0.0
sg5
g6
sg7
g43
sg8
F0.0
sg9
g57
sg10
I00
sg11
F0.0
sg12
g44
sg14
g45
sg15
g16
sg17
F0.0
sg18
g19
sg20
g46
sg21
F0.0
sg22
g47
sg23
F0.0
sg24
F0.0
sg25
g59
sg26
g48
sg27
F0.0
sg28
F139130.0
sg29
g49
sg30
g82
sg31
F0.0
sg32
g60
sg33
g34
sg35
g50
sg36
I0
sg37
F139130.0
sg39
g51
ssS'LINDHOLM TOD A'
p227
(dp228
g3
g42
sg4
F204075.0
sg5
F671814.0
sg7
g43
sg8
F57727.0
sg9
F3940097.0
sg10
I00
sg11
F175000.0
sg12
S'tod.lindholm@enron.com'
p229
sg14
g45
sg15
F4.5610957794865845
sg17
F0.0
sg18
g19
sg20
g46
sg21
F0.0
sg22
g47
sg23
F2630.0
sg24
F0.0
sg25
F5.942449568048596
sg26
g48
sg27
F200000.0
sg28
F3064208.0
sg29
g49
sg30
F514847.0
sg31
F236457.0
sg32
F875889.0
sg33
F0.35196795541623127
sg35
g50
sg36
I6
sg37
F2549361.0
sg39
g51
ssS'MEYER JEROME J'
p230
(dp231
g3
g42
sg4
F0.0
sg5
g6
sg7
g43
sg8
F2151.0
sg9
g57
sg10
I00
sg11
F0.0
sg12
g44
sg14
g45
sg15
g16
sg17
F-38346.0
sg18
g19
sg20
g46
sg21
F0.0
sg22
g47
sg23
F0.0
sg24
F38346.0
sg25
F3.3328422669943514
sg26
g48
sg27
F0.0
sg28
g86
sg29
g49
sg30
g82
sg31
F0.0
sg32
F2151.0
sg33
g34
sg35
g50
sg36
I3
sg37
g38
sg39
g51
ssS'LAY KENNETH L'
p232
(dp233
g3
F4273.0
sg4
F202911.0
sg5
F103356882.0
sg7
F0.4444444444444444
sg8
F99832.0
sg9
F152669871.0
sg10
I01
sg11
F3600000.0
sg12
S'kenneth.lay@enron.com'
p234
sg14
F123.0
sg15
F0.4751505371456542
sg17
F-300000.0
sg18
g19
sg20
F2411.0
sg21
F81525000.0
sg22
F36.0
sg23
F10359729.0
sg24
F0.0
sg25
F8.0151911778699
sg26
F7.6875
sg27
F7000000.0
sg28
F49110078.0
sg29
F16.0
sg30
F14761694.0
sg31
F1072321.0
sg32
F103559793.0
sg33
F0.010374935652567382
sg35
F0.5642405803884858
sg36
I8
sg37
F34348384.0
sg39
F0.028785396676807865
ssS'BUTTS ROBERT H'
p235
(dp236
g3
g42
sg4
F0.0
sg5
g6
sg7
g43
sg8
F9410.0
sg9
F1689201.0
sg10
I00
sg11
F175000.0
sg12
S'bob.butts@enron.com'
p237
sg14
g45
sg15
g16
sg17
F-75000.0
sg18
g19
sg20
g46
sg21
F0.0
sg22
g47
sg23
F150656.0
sg24
F0.0
sg25
F6.104344713127963
sg26
g48
sg27
F750000.0
sg28
F417619.0
sg29
g49
sg30
F417619.0
sg31
F261516.0
sg32
F1271582.0
sg33
g34
sg35
g50
sg36
I6
sg37
g38
sg39
g51
ssS'OLSON CINDY K'
p238
(dp239
g3
F1184.0
sg4
F77716.0
sg5
F1243841.0
sg7
F0.28846153846153844
sg8
F63791.0
sg9
F3928320.0
sg10
I00
sg11
F100000.0
sg12
S'cindy.olson@enron.com'
p240
sg14
F20.0
sg15
F2.0957365129465906
sg17
F0.0
sg18
g19
sg20
F856.0
sg21
F0.0
sg22
F52.0
sg23
F972.0
sg24
F0.0
sg25
F6.121086228025579
sg26
F1.3333333333333333
sg27
F750000.0
sg28
F2606763.0
sg29
F15.0
sg30
F969729.0
sg31
F329078.0
sg32
F1321557.0
sg33
F0.26456596944464766
sg35
F0.722972972972973
sg36
I6
sg37
F1637034.0
sg39
F0.016891891891891893
ssS'MCDONALD REBECCA'
p241
(dp242
g3
F894.0
sg4
F0.0
sg5
g6
sg7
F0.07692307692307693
sg8
F0.0
sg9
g57
sg10
I00
sg11
F0.0
sg12
S'rebecca.mcdonald@enron.com'
p243
sg14
F54.0
sg15
g16
sg17
F0.0
sg18
g19
sg20
F720.0
sg21
F0.0
sg22
F13.0
sg23
F0.0
sg24
F0.0
sg25
g59
sg26
F54.0
sg27
F0.0
sg28
F1691366.0
sg29
F1.0
sg30
F934065.0
sg31
F0.0
sg32
g60
sg33
g34
sg35
F0.8053691275167785
sg36
I0
sg37
F757301.0
sg39
F0.06040268456375839
ssS'CUMBERLAND MICHAEL S'
p244
(dp245
g3
g42
sg4
F0.0
sg5
g6
sg7
g43
sg8
F22344.0
sg9
F1015896.0
sg10
I00
sg11
F275000.0
sg12
g44
sg14
g45
sg15
g16
sg17
F0.0
sg18
g19
sg20
g46
sg21
F0.0
sg22
g47
sg23
F713.0
sg24
F0.0
sg25
F5.907388247953235
sg26
g48
sg27
F325000.0
sg28
F207940.0
sg29
g49
sg30
F207940.0
sg31
F184899.0
sg32
F807956.0
sg33
g34
sg35
g50
sg36
I5
sg37
g38
sg39
g51
ssS'GAHN ROBERT S'
p246
(dp247
g3
g42
sg4
F73122.0
sg5
F827463.0
sg7
g43
sg8
F50080.0
sg9
F1219192.0
sg10
I00
sg11
F0.0
sg12
g44
sg14
g45
sg15
F0.38504078127964636
sg17
F-1042.0
sg18
g19
sg20
g46
sg21
F0.0
sg22
g47
sg23
F76547.0
sg24
F0.0
sg25
F5.954525191383293
sg26
g48
sg27
F509870.0
sg28
F318607.0
sg29
g49
sg30
F235370.0
sg31
F192008.0
sg32
F900585.0
sg33
F0.2320442122487652
sg35
g50
sg36
I6
sg37
F83237.0
sg39
g51
ssS'MCCLELLAN GEORGE'
p248
(dp249
g3
F1744.0
sg4
F0.0
sg5
g6
sg7
F0.0
sg8
F228763.0
sg9
F2266624.0
sg10
I00
sg11
F0.0
sg12
S'george.mcclellan@enron.com'
p250
sg14
F52.0
sg15
g16
sg17
F-125000.0
sg18
g19
sg20
F1469.0
sg21
F0.0
sg22
F49.0
sg23
F51587.0
sg24
F0.0
sg25
F6.120167083136914
sg26
g48
sg27
F900000.0
sg28
F947861.0
sg29
F0.0
sg30
F441096.0
sg31
F263413.0
sg32
F1318763.0
sg33
g34
sg35
F0.8423165137614679
sg36
I5
sg37
F506765.0
sg39
F0.02981651376146789
ssS'HERMANN ROBERT J'
p251
(dp252
g3
g42
sg4
F0.0
sg5
g6
sg7
g43
sg8
F48357.0
sg9
F1965593.0
sg10
I00
sg11
F150000.0
sg12
S'robert.hermann@enron.com'
p253
sg14
g45
sg15
g16
sg17
F-280000.0
sg18
g19
sg20
g46
sg21
F0.0
sg22
g47
sg23
F416441.0
sg24
F0.0
sg25
F6.113094647112416
sg26
g48
sg27
F700000.0
sg28
F668132.0
sg29
g49
sg30
F480632.0
sg31
F262663.0
sg32
F1297461.0
sg33
g34
sg35
g50
sg36
I6
sg37
F187500.0
sg39
g51
ssS'SCRIMSHAW MATTHEW'
p254
(dp255
g3
g42
sg4
F0.0
sg5
g6
sg7
g43
sg8
F0.0
sg9
g57
sg10
I00
sg11
F0.0
sg12
S'matthew.scrimshaw@enron.com'
p256
sg14
g45
sg15
g16
sg17
F0.0
sg18
g19
sg20
g46
sg21
F0.0
sg22
g47
sg23
F0.0
sg24
F0.0
sg25
g59
sg26
g48
sg27
F0.0
sg28
F759557.0
sg29
g49
sg30
g82
sg31
F0.0
sg32
g60
sg33
g34
sg35
g50
sg36
I0
sg37
F759557.0
sg39
g51
ssS'GATHMANN WILLIAM D'
p257
(dp258
g3
g42
sg4
F0.0
sg5
g6
sg7
g43
sg8
F0.0
sg9
g57
sg10
I00
sg11
F0.0
sg12
g44
sg14
g45
sg15
g16
sg17
F0.0
sg18
F-72419.0
sg20
g46
sg21
F0.0
sg22
g47
sg23
F0.0
sg24
F0.0
sg25
g59
sg26
g48
sg27
F0.0
sg28
F1945360.0
sg29
g49
sg30
F264013.0
sg31
F0.0
sg32
g60
sg33
g34
sg35
g50
sg36
I0
sg37
F1753766.0
sg39
g51
ssS'HAEDICKE MARK E'
p259
(dp260
g3
F4009.0
sg4
F2157527.0
sg5
F1701538.0
sg7
F0.03142709943328181
sg8
F76169.0
sg9
F4662159.0
sg10
I00
sg11
F983346.0
sg12
S'mark.haedicke@enron.com'
p261
sg14
F180.0
sg15
F0.4719812310979831
sg17
F-934484.0
sg18
F-329825.0
sg20
F1847.0
sg21
F0.0
sg22
F1941.0
sg23
F52382.0
sg24
F0.0
sg25
F6.586482206192722
sg26
F2.9508196721311477
sg27
F1150000.0
sg28
F803094.0
sg29
F61.0
sg30
F524169.0
sg31
F374125.0
sg32
F3859065.0
sg33
F0.2198746075609243
sg35
F0.4607133948615615
sg36
I7
sg37
F608750.0
sg39
F0.04489897730107259
ssS'BOWEN JR RAYMOND M'
p262
(dp263
g3
F1858.0
sg4
F0.0
sg5
g6
sg7
F0.5555555555555556
sg8
F65907.0
sg9
F2921644.0
sg10
I01
sg11
F974293.0
sg12
S'raymond.bowen@enron.com'
p264
sg14
F140.0
sg15
g16
sg17
F-833.0
sg18
g19
sg20
F1593.0
sg21
F0.0
sg22
F27.0
sg23
F1621.0
sg24
F0.0
sg25
F6.426444566828879
sg26
F9.333333333333334
sg27
F1350000.0
sg28
F252055.0
sg29
F15.0
sg30
F252055.0
sg31
F278601.0
sg32
F2669589.0
sg33
g34
sg35
F0.8573735199138859
sg36
I6
sg37
g38
sg39
F0.07534983853606028
ssS'GILLIS JOHN'
p265
(dp266
g3
g42
sg4
F0.0
sg5
g6
sg7
g43
sg8
F0.0
sg9
g57
sg10
I00
sg11
F0.0
sg12
g44
sg14
g45
sg15
g16
sg17
F0.0
sg18
g19
sg20
g46
sg21
F0.0
sg22
g47
sg23
F0.0
sg24
F0.0
sg25
g59
sg26
g48
sg27
F0.0
sg28
F85641.0
sg29
g49
sg30
F75838.0
sg31
F0.0
sg32
g60
sg33
g34
sg35
g50
sg36
I0
sg37
F9803.0
sg39
g51
ssS'FITZGERALD JAY L'
p267
(dp268
g3
F936.0
sg4
F0.0
sg5
g6
sg7
F0.5
sg8
F23870.0
sg9
F3036093.0
sg10
I00
sg11
F556416.0
sg12
S'jay.fitzgerald@enron.com'
p269
sg14
F1.0
sg15
g16
sg17
F0.0
sg18
g19
sg20
F723.0
sg21
F0.0
sg22
F16.0
sg23
F285414.0
sg24
F0.0
sg25
F6.150712854764179
sg26
F0.125
sg27
F350000.0
sg28
F1621236.0
sg29
F8.0
sg30
F956775.0
sg31
F199157.0
sg32
F1414857.0
sg33
g34
sg35
F0.7724358974358975
sg36
I5
sg37
F664461.0
sg39
F0.0010683760683760685
ssS'MORAN MICHAEL P'
p270
(dp271
g3
F672.0
sg4
F0.0
sg5
g6
sg7
F0.0
sg8
F0.0
sg9
g57
sg10
I00
sg11
F0.0
sg12
S'michael.moran@enron.com'
p272
sg14
F0.0
sg15
g16
sg17
F0.0
sg18
g19
sg20
F127.0
sg21
F0.0
sg22
F19.0
sg23
F0.0
sg24
F0.0
sg25
g59
sg26
g48
sg27
F0.0
sg28
F221141.0
sg29
F0.0
sg30
F161602.0
sg31
F0.0
sg32
g60
sg33
g34
sg35
F0.18898809523809523
sg36
I0
sg37
F59539.0
sg39
F0.0
ssS'REDMOND BRIAN L'
p273
(dp274
g3
F1671.0
sg4
F0.0
sg5
g6
sg7
F0.22171945701357465
sg8
F14689.0
sg9
F8001853.0
sg10
I00
sg11
F0.0
sg12
S'brian.redmond@enron.com'
p275
sg14
F204.0
sg15
g16
sg17
F0.0
sg18
g19
sg20
F1063.0
sg21
F0.0
sg22
F221.0
sg23
F0.0
sg24
F0.0
sg25
F5.047391702200444
sg26
F4.163265306122449
sg27
F0.0
sg28
F7890324.0
sg29
F49.0
sg30
F381285.0
sg31
F96840.0
sg32
F111529.0
sg33
g34
sg35
F0.6361460203470976
sg36
I2
sg37
F7509039.0
sg39
F0.12208258527827648
ssS'BAZELIDES PHILIP J'
p276
(dp277
g3
g42
sg4
F684694.0
sg5
F175442.0
sg7
g43
sg8
F0.0
sg9
F2459777.0
sg10
I00
sg11
F93750.0
sg12
g44
sg14
g45
sg15
F9.117776815129787
sg17
F0.0
sg18
g19
sg20
g46
sg21
F0.0
sg22
g47
sg23
F874.0
sg24
F0.0
sg25
F5.934567629854511
sg26
g48
sg27
F0.0
sg28
F1599641.0
sg29
g49
sg30
g82
sg31
F80818.0
sg32
F860136.0
sg33
F0.4606536633189316
sg35
g50
sg36
I4
sg37
F1599641.0
sg39
g51
ssS'BELDEN TIMOTHY N'
p278
(dp279
g3
F7991.0
sg4
F2144013.0
sg5
F3357617.0
sg7
F0.2231404958677686
sg8
F17355.0
sg9
F6612335.0
sg10
I01
sg11
F0.0
sg12
S'tim.belden@enron.com'
p280
sg14
F228.0
sg15
F0.33080157742827726
sg17
F-2334434.0
sg18
g19
sg20
F5521.0
sg21
F0.0
sg22
F484.0
sg23
F210698.0
sg24
F0.0
sg25
F6.7404914584568045
sg26
F2.111111111111111
sg27
F5249999.0
sg28
F1110705.0
sg29
F108.0
sg30
F157569.0
sg31
F213999.0
sg32
F5501630.0
sg33
F0.0637353813731584
sg35
F0.6909022650481792
sg36
I6
sg37
F953136.0
sg39
F0.028532098610937303
ssS'DURAN WILLIAM D'
p281
(dp282
g3
F904.0
sg4
F0.0
sg5
g6
sg7
F0.25
sg8
F25785.0
sg9
F3734173.0
sg10
I00
sg11
F1105218.0
sg12
S'w.duran@enron.com'
p283
sg14
F106.0
sg15
g16
sg17
F0.0
sg18
g19
sg20
F599.0
sg21
F0.0
sg22
F12.0
sg23
F1568.0
sg24
F0.0
sg25
F6.320824004503484
sg26
F35.333333333333336
sg27
F750000.0
sg28
F1640910.0
sg29
F3.0
sg30
F189041.0
sg31
F210692.0
sg32
F2093263.0
sg33
g34
sg35
F0.6626106194690266
sg36
I5
sg37
F1451869.0
sg39
F0.1172566371681416
ssS'THORN TERENCE H'
p284
(dp285
g3
F266.0
sg4
F16586.0
sg5
F894867.0
sg7
F0.0
sg8
F46145.0
sg9
F5729249.0
sg10
I00
sg11
F200000.0
sg12
S'terence.thorn@enron.com'
p286
sg14
F0.0
sg15
F5.383812343063271
sg17
F0.0
sg18
g19
sg20
F73.0
sg21
F0.0
sg22
F41.0
sg23
F426629.0
sg24
F0.0
sg25
F5.959734755217785
sg26
g48
sg27
F0.0
sg28
F4817796.0
sg29
F0.0
sg30
F365320.0
sg31
F222093.0
sg32
F911453.0
sg33
F0.24818548454686562
sg35
F0.2744360902255639
sg36
I5
sg37
F4452476.0
sg39
F0.0
ssS'FASTOW ANDREW S'
p287
(dp288
g3
g42
sg4
F0.0
sg5
g6
sg7
g43
sg8
F55921.0
sg9
F4218495.0
sg10
I01
sg11
F1736055.0
sg12
S'andrew.fastow@enron.com'
p289
sg14
g45
sg15
g16
sg17
F-1386055.0
sg18
g19
sg20
g46
sg21
F0.0
sg22
g47
sg23
F277464.0
sg24
F0.0
sg25
F6.38454766504227
sg26
g48
sg27
F1300000.0
sg28
F1794412.0
sg29
g49
sg30
F1794412.0
sg31
F440698.0
sg32
F2424083.0
sg33
g34
sg35
g50
sg36
I6
sg37
g38
sg39
g51
ssS'FOY JOE'
p290
(dp291
g3
F57.0
sg4
F181755.0
sg5
F0.0
sg7
F0.0
sg8
F0.0
sg9
F525189.0
sg10
I00
sg11
F0.0
sg12
S'tracy.foy@enron.com'
p292
sg14
F0.0
sg15
g16
sg17
F0.0
sg18
g19
sg20
F2.0
sg21
F0.0
sg22
F13.0
sg23
F0.0
sg24
F0.0
sg25
F5.259488756388743
sg26
g48
sg27
F0.0
sg28
F343434.0
sg29
F0.0
sg30
g82
sg31
F0.0
sg32
F181755.0
sg33
g34
sg35
F0.03508771929824561
sg36
I1
sg37
F343434.0
sg39
F0.0
ssS'CALGER CHRISTOPHER F'
p293
(dp294
g3
F2598.0
sg4
F0.0
sg5
g6
sg7
F0.1736111111111111
sg8
F35818.0
sg9
F1765324.0
sg10
I01
sg11
F375304.0
sg12
S'christopher.calger@enron.com'
p295
sg14
F199.0
sg15
g16
sg17
F-262500.0
sg18
g19
sg20
F2188.0
sg21
F0.0
sg22
F144.0
sg23
F486.0
sg24
F0.0
sg25
F6.214657909026021
sg26
F7.96
sg27
F1250000.0
sg28
F126027.0
sg29
F25.0
sg30
F126027.0
sg31
F240189.0
sg32
F1639297.0
sg33
g34
sg35
F0.8421862971516552
sg36
I6
sg37
g38
sg39
F0.07659738260200154
ssS'RICE KENNETH D'
p296
(dp297
g3
F905.0
sg4
F0.0
sg5
g6
sg7
F0.2222222222222222
sg8
F46950.0
sg9
F23047589.0
sg10
I01
sg11
F1617011.0
sg12
S'ken.rice@enron.com'
p298
sg14
F42.0
sg15
g16
sg17
F-3504386.0
sg18
g19
sg20
F864.0
sg21
F0.0
sg22
F18.0
sg23
F174839.0
sg24
F0.0
sg25
F5.703335235346852
sg26
F10.5
sg27
F1750000.0
sg28
F22542539.0
sg29
F4.0
sg30
F2748364.0
sg31
F420636.0
sg32
F505050.0
sg33
g34
sg35
F0.9546961325966851
sg36
I6
sg37
F19794175.0
sg39
F0.04640883977900553
ssS'KAMINSKI WINCENTY J'
p299
(dp300
g3
F4607.0
sg4
F0.0
sg5
g6
sg7
F0.011901447661469933
sg8
F83585.0
sg9
F2062858.0
sg10
I00
sg11
F323466.0
sg12
S'vince.kaminski@enron.com'
p301
sg14
F41.0
sg15
g16
sg17
F0.0
sg18
g19
sg20
F583.0
sg21
F0.0
sg22
F14368.0
sg23
F4669.0
sg24
F0.0
sg25
F6.0361584210431465
sg26
F0.23976608187134502
sg27
F400000.0
sg28
F976037.0
sg29
F171.0
sg30
F126027.0
sg31
F275101.0
sg32
F1086821.0
sg33
g34
sg35
F0.1265465595832429
sg36
I5
sg37
F850010.0
sg39
F0.008899500759713479
ssS'LOCKHART EUGENE E'
p302
(dp303
g3
g42
sg4
F0.0
sg5
g6
sg7
g43
sg8
F0.0
sg9
g57
sg10
I00
sg11
F0.0
sg12
g44
sg14
g45
sg15
g16
sg17
F0.0
sg18
g19
sg20
g46
sg21
F0.0
sg22
g47
sg23
F0.0
sg24
F0.0
sg25
g59
sg26
g48
sg27
F0.0
sg28
g86
sg29
g49
sg30
g82
sg31
F0.0
sg32
g60
sg33
g34
sg35
g50
sg36
I0
sg37
g38
sg39
g51
ssS'COX DAVID'
p304
(dp305
g3
F102.0
sg4
F0.0
sg5
g6
sg7
F0.12121212121212122
sg8
F27861.0
sg9
F1597026.0
sg10
I00
sg11
F0.0
sg12
S'chip.cox@enron.com'
p306
sg14
F0.0
sg15
g16
sg17
F-41250.0
sg18
g19
sg20
F71.0
sg21
F0.0
sg22
F33.0
sg23
F494.0
sg24
F0.0
sg25
F6.041942706270932
sg26
F0.0
sg27
F800000.0
sg28
F495633.0
sg29
F4.0
sg30
F378082.0
sg31
F314288.0
sg32
F1101393.0
sg33
g34
sg35
F0.696078431372549
sg36
I5
sg37
F117551.0
sg39
F0.0
ssS'OVERDYKE JR JERE C'
p307
(dp308
g3
g42
sg4
F0.0
sg5
g6
sg7
g43
sg8
F18834.0
sg9
F7557381.0
sg10
I00
sg11
F135836.0
sg12
S'jere.overdyke@enron.com'
p309
sg14
g45
sg15
g16
sg17
F0.0
sg18
g19
sg20
g46
sg21
F0.0
sg22
g47
sg23
F176.0
sg24
F0.0
sg25
F5.3975715707116
sg26
g48
sg27
F0.0
sg28
F7307594.0
sg29
g49
sg30
F2041016.0
sg31
F94941.0
sg32
F249787.0
sg33
g34
sg35
g50
sg36
I4
sg37
F5266578.0
sg39
g51
ssS'PEREIRA PAULO V. FERRAZ'
p310
(dp311
g3
g42
sg4
F0.0
sg5
g6
sg7
g43
sg8
F27942.0
sg9
g57
sg10
I00
sg11
F0.0
sg12
g44
sg14
g45
sg15
g16
sg17
F-101250.0
sg18
g19
sg20
g46
sg21
F0.0
sg22
g47
sg23
F0.0
sg24
F101250.0
sg25
F4.446273030751088
sg26
g48
sg27
F0.0
sg28
g86
sg29
g49
sg30
g82
sg31
F0.0
sg32
F27942.0
sg33
g34
sg35
g50
sg36
I3
sg37
g38
sg39
g51
ssS'STABLER FRANK'
p312
(dp313
g3
g42
sg4
F0.0
sg5
g6
sg7
g43
sg8
F16514.0
sg9
F1623821.0
sg10
I00
sg11
F0.0
sg12
S'frank.stabler@enron.com'
p314
sg14
g45
sg15
g16
sg17
F0.0
sg18
g19
sg20
g46
sg21
F0.0
sg22
g47
sg23
F356071.0
sg24
F0.0
sg25
F6.046139154514265
sg26
g48
sg27
F500000.0
sg28
F511734.0
sg29
g49
sg30
F511734.0
sg31
F239502.0
sg32
F1112087.0
sg33
g34
sg35
g50
sg36
I4
sg37
g38
sg39
g51
ssS'SKILLING JEFFREY K'
p315
(dp316
g3
F3627.0
sg4
F0.0
sg5
g6
sg7
F0.2777777777777778
sg8
F29336.0
sg9
F34776388.0
sg10
I01
sg11
F1920000.0
sg12
S'jeff.skilling@enron.com'
p317
sg14
F88.0
sg15
g16
sg17
F0.0
sg18
g19
sg20
F2042.0
sg21
F0.0
sg22
F108.0
sg23
F22122.0
sg24
F0.0
sg25
F6.9386556460829905
sg26
F2.933333333333333
sg27
F5600000.0
sg28
F26093672.0
sg29
F30.0
sg30
F6843672.0
sg31
F1111258.0
sg32
F8682716.0
sg33
g34
sg35
F0.5629997242900469
sg36
I5
sg37
F19250000.0
sg39
F0.0242624758753791
ssS'BLAKE JR. NORMAN P'
p318
(dp319
g3
g42
sg4
F0.0
sg5
g6
sg7
g43
sg8
F1279.0
sg9
g57
sg10
I00
sg11
F0.0
sg12
g44
sg14
g45
sg15
g16
sg17
F-113784.0
sg18
g19
sg20
g46
sg21
F0.0
sg22
g47
sg23
F0.0
sg24
F113784.0
sg25
F3.1072099696478683
sg26
g48
sg27
F0.0
sg28
g86
sg29
g49
sg30
g82
sg31
F0.0
sg32
F1279.0
sg33
g34
sg35
g50
sg36
I3
sg37
g38
sg39
g51
ssS'SHERRICK JEFFREY B'
p320
(dp321
g3
F613.0
sg4
F0.0
sg5
g6
sg7
F0.72
sg8
F0.0
sg9
g57
sg10
I00
sg11
F0.0
sg12
S'jeffrey.sherrick@enron.com'
p322
sg14
F39.0
sg15
g16
sg17
F0.0
sg18
g19
sg20
F583.0
sg21
F0.0
sg22
F25.0
sg23
F0.0
sg24
F0.0
sg25
g59
sg26
F2.1666666666666665
sg27
F0.0
sg28
F1832468.0
sg29
F18.0
sg30
F405999.0
sg31
F0.0
sg32
g60
sg33
g34
sg35
F0.9510603588907015
sg36
I0
sg37
F1426469.0
sg39
F0.0636215334420881
ssS'PRENTICE JAMES'
p323
(dp324
g3
g42
sg4
F564348.0
sg5
F0.0
sg7
g43
sg8
F0.0
sg9
F1659388.0
sg10
I00
sg11
F0.0
sg12
S'james.prentice@enron.com'
p325
sg14
g45
sg15
g16
sg17
F0.0
sg18
g19
sg20
g46
sg21
F0.0
sg22
g47
sg23
F0.0
sg24
F0.0
sg25
F5.751547759831874
sg26
g48
sg27
F0.0
sg28
F1095040.0
sg29
g49
sg30
F208809.0
sg31
F0.0
sg32
F564348.0
sg33
g34
sg35
g50
sg36
I1
sg37
F886231.0
sg39
g51
ssS'GRAY RODNEY'
p326
(dp327
g3
g42
sg4
F93585.0
sg5
F1053073.0
sg7
g43
sg8
F0.0
sg9
g57
sg10
I00
sg11
F365625.0
sg12
g44
sg14
g45
sg15
g16
sg17
F0.0
sg18
g19
sg20
g46
sg21
F0.0
sg22
g47
sg23
F680833.0
sg24
F0.0
sg25
F6.059434284129055
sg26
g48
sg27
F0.0
sg28
g86
sg29
g49
sg30
g82
sg31
F6615.0
sg32
F1146658.0
sg33
F0.006281615804412419
sg35
g50
sg36
I4
sg37
g38
sg39
g51
ssS'PICKERING MARK R'
p328
(dp329
g3
F898.0
sg4
F0.0
sg5
g6
sg7
F0.0
sg8
F31653.0
sg9
F1415488.0
sg10
I00
sg11
F0.0
sg12
S'mark.pickering@enron.com'
p330
sg14
F7.0
sg15
g16
sg17
F0.0
sg18
g19
sg20
F728.0
sg21
F400000.0
sg22
F67.0
sg23
F0.0
sg24
F0.0
sg25
F6.1419796968731895
sg26
g48
sg27
F300000.0
sg28
F28798.0
sg29
F0.0
sg30
g82
sg31
F655037.0
sg32
F1386690.0
sg33
g34
sg35
F0.8106904231625836
sg36
I4
sg37
F28798.0
sg39
F0.0077951002227171495
ssS'THE TRAVEL AGENCY IN THE PARK'
p331
(dp332
g3
g42
sg4
F0.0
sg5
g6
sg7
g43
sg8
F0.0
sg9
g57
sg10
I00
sg11
F0.0
sg12
g44
sg14
g45
sg15
g16
sg17
F0.0
sg18
g19
sg20
g46
sg21
F0.0
sg22
g47
sg23
F362096.0
sg24
F0.0
sg25
F5.558824926670525
sg26
g48
sg27
F0.0
sg28
g86
sg29
g49
sg30
g82
sg31
F0.0
sg32
F362096.0
sg33
g34
sg35
g50
sg36
I1
sg37
g38
sg39
g51
ssS'NOLES JAMES L'
p333
(dp334
g3
g42
sg4
F774401.0
sg5
F0.0
sg7
g43
sg8
F0.0
sg9
F1143106.0
sg10
I00
sg11
F0.0
sg12
g44
sg14
g45
sg15
g16
sg17
F0.0
sg18
F-94556.0
sg20
g46
sg21
F0.0
sg22
g47
sg23
F0.0
sg24
F0.0
sg25
F5.8889664659272
sg26
g48
sg27
F0.0
sg28
F368705.0
sg29
g49
sg30
F463261.0
sg31
F0.0
sg32
F774401.0
sg33
g34
sg35
g50
sg36
I1
sg37
g38
sg39
g51
ssS'KEAN STEVEN J'
p335
(dp336
g3
F12754.0
sg4
F0.0
sg5
g6
sg7
F0.05725699067909454
sg8
F41953.0
sg9
F7901164.0
sg10
I00
sg11
F300000.0
sg12
S'steven.kean@enron.com'
p337
sg14
F140.0
sg15
g16
sg17
F0.0
sg18
g19
sg20
F3639.0
sg21
F0.0
sg22
F6759.0
sg23
F1231.0
sg24
F0.0
sg25
F6.242422900416202
sg26
F0.36175710594315247
sg27
F1000000.0
sg28
F6153642.0
sg29
F387.0
sg30
F4131594.0
sg31
F404338.0
sg32
F1747522.0
sg33
g34
sg35
F0.2853222518425592
sg36
I5
sg37
F2022048.0
sg39
F0.010976948408342482
ssS'FOWLER PEGGY'
p338
(dp339
g3
F517.0
sg4
F0.0
sg5
g6
sg7
F0.0
sg8
F0.0
sg9
g57
sg10
I00
sg11
F0.0
sg12
S'kulvinder.fowler@enron.com'
p340
sg14
F0.0
sg15
g16
sg17
F0.0
sg18
g19
sg20
F10.0
sg21
F0.0
sg22
F36.0
sg23
F0.0
sg24
F0.0
sg25
g59
sg26
g48
sg27
F0.0
sg28
F1884748.0
sg29
F0.0
sg30
F560170.0
sg31
F0.0
sg32
g60
sg33
g34
sg35
F0.019342359767891684
sg36
I0
sg37
F1324578.0
sg39
F0.0
ssS'WASAFF GEORGE'
p341
(dp342
g3
F400.0
sg4
F831299.0
sg5
F203096.0
sg7
F0.23333333333333334
sg8
F0.0
sg9
F3090822.0
sg10
I00
sg11
F200000.0
sg12
S'george.wasaff@enron.com'
p343
sg14
F22.0
sg15
F10.125393902390988
sg17
F-583325.0
sg18
g19
sg20
F337.0
sg21
F0.0
sg22
F30.0
sg23
F1425.0
sg24
F0.0
sg25
F6.014686832462742
sg26
F3.142857142857143
sg27
F325000.0
sg28
F2056427.0
sg29
F7.0
sg30
F388167.0
sg31
F259996.0
sg32
F1034395.0
sg33
F1.2801630755898687
sg35
F0.8425
sg36
I6
sg37
F1668260.0
sg39
F0.055
ssS'WHITE JR THOMAS E'
p344
(dp345
g3
g42
sg4
F0.0
sg5
g6
sg7
g43
sg8
F81353.0
sg9
F17078482.0
sg10
I00
sg11
F0.0
sg12
S'thomas.white@enron.com'
p346
sg14
g45
sg15
g16
sg17
F0.0
sg18
g19
sg20
g46
sg21
F0.0
sg22
g47
sg23
F1085463.0
sg24
F0.0
sg25
F6.286537302975502
sg26
g48
sg27
F450000.0
sg28
F15144123.0
sg29
g49
sg30
F13847074.0
sg31
F317543.0
sg32
F1934359.0
sg33
g34
sg35
g50
sg36
I4
sg37
F1297049.0
sg39
g51
ssS'CHRISTODOULOU DIOMEDES'
p347
(dp348
g3
g42
sg4
F0.0
sg5
g6
sg7
g43
sg8
F0.0
sg9
g57
sg10
I00
sg11
F0.0
sg12
S'diomedes.christodoulou@enron.com'
p349
sg14
g45
sg15
g16
sg17
F0.0
sg18
g19
sg20
g46
sg21
F0.0
sg22
g47
sg23
F0.0
sg24
F0.0
sg25
g59
sg26
g48
sg27
F0.0
sg28
F6077885.0
sg29
g49
sg30
F950730.0
sg31
F0.0
sg32
g60
sg33
g34
sg35
g50
sg36
I0
sg37
F5127155.0
sg39
g51
ssS'ALLEN PHILLIP K'
p350
(dp351
g3
F2902.0
sg4
F2869717.0
sg5
F1614725.0
sg7
F0.029612756264236904
sg8
F13868.0
sg9
F6213983.0
sg10
I00
sg11
F304805.0
sg12
S'phillip.allen@enron.com'
p352
sg14
F47.0
sg15
F1.071105606217777
sg17
F-3081055.0
sg18
F-126027.0
sg20
F1407.0
sg21
F0.0
sg22
F2195.0
sg23
F152.0
sg24
F0.0
sg25
F6.6517085082388
sg26
F0.7230769230769231
sg27
F4175000.0
sg28
F1729541.0
sg29
F65.0
sg30
F126027.0
sg31
F201955.0
sg32
F4484442.0
sg33
F0.12507083249469725
sg35
F0.4848380427291523
sg36
I7
sg37
F1729541.0
sg39
F0.016195727084769126
ssS'SHARP VICTORIA T'
p353
(dp354
g3
F3136.0
sg4
F187469.0
sg5
F1389042.0
sg7
F0.04411764705882353
sg8
F116337.0
sg9
F2070647.0
sg10
I00
sg11
F422158.0
sg12
S'vicki.sharp@enron.com'
p355
sg14
F24.0
sg15
F0.355738703365341
sg17
F0.0
sg18
g19
sg20
F2477.0
sg21
F0.0
sg22
F136.0
sg23
F2401.0
sg24
F0.0
sg25
F6.197697280833336
sg26
F4.0
sg27
F600000.0
sg28
F494136.0
sg29
F6.0
sg30
F213063.0
sg31
F248146.0
sg32
F1576511.0
sg33
F0.17864542612822362
sg35
F0.7898596938775511
sg36
I6
sg37
F281073.0
sg39
F0.007653061224489796
ssS'JAEDICKE ROBERT'
p356
(dp357
g3
g42
sg4
F0.0
sg5
g6
sg7
g43
sg8
F0.0
sg9
F515500.0
sg10
I00
sg11
F0.0
sg12
g44
sg14
g45
sg15
g16
sg17
F-25000.0
sg18
F-44093.0
sg20
g46
sg21
F0.0
sg22
g47
sg23
F0.0
sg24
F108750.0
sg25
F4.9229900012836785
sg26
g48
sg27
F0.0
sg28
F431750.0
sg29
g49
sg30
F44093.0
sg31
F0.0
sg32
F83750.0
sg33
g34
sg35
g50
sg36
I2
sg37
F431750.0
sg39
g51
ssS'WINOKUR JR. HERBERT S'
p358
(dp359
g3
g42
sg4
F0.0
sg5
g6
sg7
g43
sg8
F1413.0
sg9
g57
sg10
I00
sg11
F0.0
sg12
g44
sg14
g45
sg15
g16
sg17
F-25000.0
sg18
g19
sg20
g46
sg21
F0.0
sg22
g47
sg23
F0.0
sg24
F108579.0
sg25
F4.929383158813597
sg26
g48
sg27
F0.0
sg28
g86
sg29
g49
sg30
g82
sg31
F0.0
sg32
F84992.0
sg33
g34
sg35
g50
sg36
I3
sg37
g38
sg39
g51
ssS'BROWN MICHAEL'
p360
(dp361
g3
F1486.0
sg4
F0.0
sg5
g6
sg7
F0.024390243902439025
sg8
F49288.0
sg9
g57
sg10
I00
sg11
F0.0
sg12
S'michael.brown@enron.com'
p362
sg14
F13.0
sg15
g16
sg17
F0.0
sg18
g19
sg20
F761.0
sg21
F0.0
sg22
F41.0
sg23
F0.0
sg24
F0.0
sg25
F4.692750007059422
sg26
F13.0
sg27
F0.0
sg28
g86
sg29
F1.0
sg30
g82
sg31
F0.0
sg32
F49288.0
sg33
g34
sg35
F0.5121130551816958
sg36
I1
sg37
g38
sg39
F0.008748317631224764
ssS'BADUM JAMES P'
p363
(dp364
g3
g42
sg4
F178980.0
sg5
F3486.0
sg7
g43
sg8
F3486.0
sg9
F440283.0
sg10
I00
sg11
F0.0
sg12
g44
sg14
g45
sg15
F73.9578313253012
sg17
F0.0
sg18
g19
sg20
g46
sg21
F0.0
sg22
g47
sg23
F0.0
sg24
F0.0
sg25
F5.261184331730557
sg26
g48
sg27
F0.0
sg28
F257817.0
sg29
g49
sg30
g82
sg31
F0.0
sg32
F182466.0
sg33
g34
sg35
g50
sg36
I2
sg37
F257817.0
sg39
g51
ssS'HUGHES JAMES A'
p365
(dp366
g3
F719.0
sg4
F0.0
sg5
g6
sg7
F0.14705882352941177
sg8
F0.0
sg9
g57
sg10
I00
sg11
F0.0
sg12
S'james.hughes@enron.com'
p367
sg14
F35.0
sg15
g16
sg17
F0.0
sg18
g19
sg20
F589.0
sg21
F0.0
sg22
F34.0
sg23
F0.0
sg24
F0.0
sg25
g59
sg26
F7.0
sg27
F0.0
sg28
F1118394.0
sg29
F5.0
sg30
F363428.0
sg31
F0.0
sg32
g60
sg33
g34
sg35
F0.8191933240611962
sg36
I0
sg37
F754966.0
sg39
F0.048678720445062586
ssS'REYNOLDS LAWRENCE'
p368
(dp369
g3
g42
sg4
F51365.0
sg5
F343110.0
sg7
g43
sg8
F8409.0
sg9
F4616366.0
sg10
I00
sg11
F156250.0
sg12
g44
sg14
g45
sg15
F12.304773979190347
sg17
F-200000.0
sg18
F-140264.0
sg20
g46
sg21
F0.0
sg22
g47
sg23
F202052.0
sg24
F0.0
sg25
F5.596020585784653
sg26
g48
sg27
F100000.0
sg28
F4221891.0
sg29
g49
sg30
F201483.0
sg31
F76399.0
sg32
F394475.0
sg33
F0.22266620034391302
sg35
g50
sg36
I7
sg37
F4160672.0
sg39
g51
ssS'DIMICHELE RICHARD G'
p370
(dp371
g3
g42
sg4
F0.0
sg5
g6
sg7
g43
sg8
F35812.0
sg9
F10685933.0
sg10
I00
sg11
F694862.0
sg12
S'richard.dimichele@enron.com'
p372
sg14
g45
sg15
g16
sg17
F0.0
sg18
g19
sg20
g46
sg21
F0.0
sg22
g47
sg23
F374689.0
sg24
F0.0
sg25
F6.374409574166882
sg26
g48
sg27
F1000000.0
sg28
F8317782.0
sg29
g49
sg30
F126027.0
sg31
F262788.0
sg32
F2368151.0
sg33
g34
sg35
g50
sg36
I5
sg37
F8191755.0
sg39
g51
ssS'BHATNAGAR SANJAY'
p373
(dp374
g3
F523.0
sg4
F0.0
sg5
g6
sg7
F0.034482758620689655
sg8
F0.0
sg9
g57
sg10
I00
sg11
F0.0
sg12
S'sanjay.bhatnagar@enron.com'
p375
sg14
F0.0
sg15
g16
sg17
F0.0
sg18
F15456290.0
sg20
F463.0
sg21
F0.0
sg22
F29.0
sg23
F137864.0
sg24
F137864.0
sg25
F7.189105285734496
sg26
F0.0
sg27
F0.0
sg28
g86
sg29
F1.0
sg30
F-2604490.0
sg31
F0.0
sg32
F15456290.0
sg33
g34
sg35
F0.8852772466539197
sg36
I2
sg37
F2604490.0
sg39
F0.0
ssS'CARTER REBECCA C'
p376
(dp377
g3
F312.0
sg4
F0.0
sg5
g6
sg7
F0.4666666666666667
sg8
F0.0
sg9
g57
sg10
I00
sg11
F75000.0
sg12
S'rebecca.carter@enron.com'
p378
sg14
F29.0
sg15
g16
sg17
F-159792.0
sg18
F-307301.0
sg20
F196.0
sg21
F0.0
sg22
F15.0
sg23
F540.0
sg24
F0.0
sg25
F5.679026124716135
sg26
F4.142857142857143
sg27
F300000.0
sg28
g86
sg29
F7.0
sg30
F307301.0
sg31
F261809.0
sg32
F477557.0
sg33
g34
sg35
F0.6282051282051282
sg36
I5
sg37
g38
sg39
F0.09294871794871795
ssS'BUCHANAN HAROLD G'
p379
(dp380
g3
F1088.0
sg4
F0.0
sg5
g6
sg7
F0.0
sg8
F600.0
sg9
F2069142.0
sg10
I00
sg11
F304805.0
sg12
S'john.buchanan@enron.com'
p381
sg14
F0.0
sg15
g16
sg17
F0.0
sg18
g19
sg20
F23.0
sg21
F0.0
sg22
F125.0
sg23
F1215.0
sg24
F0.0
sg25
F6.0231034154811205
sg26
g48
sg27
F500000.0
sg28
F1014505.0
sg29
F0.0
sg30
F189041.0
sg31
F248017.0
sg32
F1054637.0
sg33
g34
sg35
F0.021139705882352942
sg36
I5
sg37
F825464.0
sg39
F0.0
ssS'YEAP SOON'
p382
(dp383
g3
g42
sg4
F0.0
sg5
g6
sg7
g43
sg8
F55097.0
sg9
F247855.0
sg10
I00
sg11
F0.0
sg12
g44
sg14
g45
sg15
g16
sg17
F0.0
sg18
g19
sg20
g46
sg21
F0.0
sg22
g47
sg23
F0.0
sg24
F0.0
sg25
F4.741135834700641
sg26
g48
sg27
F0.0
sg28
F192758.0
sg29
g49
sg30
g82
sg31
F0.0
sg32
F55097.0
sg33
g34
sg35
g50
sg36
I1
sg37
F192758.0
sg39
g51
ssS'MURRAY JULIA H'
p384
(dp385
g3
F2192.0
sg4
F0.0
sg5
g6
sg7
F0.044444444444444446
sg8
F57580.0
sg9
F1409655.0
sg10
I00
sg11
F125000.0
sg12
S'julia.murray@enron.com'
p386
sg14
F11.0
sg15
g16
sg17
F0.0
sg18
g19
sg20
F395.0
sg21
F0.0
sg22
F45.0
sg23
F330.0
sg24
F0.0
sg25
F5.9096603115771975
sg26
F5.5
sg27
F400000.0
sg28
F597461.0
sg29
F2.0
sg30
F196983.0
sg31
F229284.0
sg32
F812194.0
sg33
g34
sg35
F0.1802007299270073
sg36
I5
sg37
F400478.0
sg39
F0.005018248175182482
ssS'GARLAND C KEVIN'
p387
(dp388
g3
F209.0
sg4
F0.0
sg5
g6
sg7
F0.6136363636363636
sg8
F48405.0
sg9
F2462622.0
sg10
I00
sg11
F375304.0
sg12
S'kevin.garland@enron.com'
p389
sg14
F10.0
sg15
g16
sg17
F0.0
sg18
g19
sg20
F178.0
sg21
F0.0
sg22
F44.0
sg23
F60814.0
sg24
F0.0
sg25
F6.194922081975965
sg26
F0.37037037037037035
sg27
F850000.0
sg28
F896153.0
sg29
F27.0
sg30
F259907.0
sg31
F231946.0
sg32
F1566469.0
sg33
g34
sg35
F0.8516746411483254
sg36
I5
sg37
F636246.0
sg39
F0.04784688995215311
ssS'DODSON KEITH'
p390
(dp391
g3
F176.0
sg4
F0.0
sg5
g6
sg7
F0.21428571428571427
sg8
F28164.0
sg9
g57
sg10
I00
sg11
F0.0
sg12
S'keith.dodson@enron.com'
p392
sg14
F10.0
sg15
g16
sg17
F0.0
sg18
g19
sg20
F114.0
sg21
F0.0
sg22
F14.0
sg23
F774.0
sg24
F0.0
sg25
F5.505071255310573
sg26
F3.3333333333333335
sg27
F70000.0
sg28
g86
sg29
F3.0
sg30
g82
sg31
F221003.0
sg32
F319941.0
sg33
g34
sg35
F0.6477272727272727
sg36
I4
sg37
g38
sg39
F0.056818181818181816
ssS'YEAGER F SCOTT'
p393
(dp394
g3
g42
sg4
F0.0
sg5
g6
sg7
g43
sg8
F53947.0
sg9
F12245058.0
sg10
I01
sg11
F0.0
sg12
S'scott.yeager@enron.com'
p395
sg14
g45
sg15
g16
sg17
F0.0
sg18
g19
sg20
g46
sg21
F0.0
sg22
g47
sg23
F147950.0
sg24
F0.0
sg25
F5.5566654674899825
sg26
g48
sg27
F0.0
sg28
F11884758.0
sg29
g49
sg30
F3576206.0
sg31
F158403.0
sg32
F360300.0
sg33
g34
sg35
g50
sg36
I3
sg37
F8308552.0
sg39
g51
ssS'HIRKO JOSEPH'
p396
(dp397
g3
g42
sg4
F10259.0
sg5
F80834.0
sg7
g43
sg8
F77978.0
sg9
F30857157.0
sg10
I01
sg11
F0.0
sg12
S'joe.hirko@enron.com'
p398
sg14
g45
sg15
F380.6079619961897
sg17
F0.0
sg18
g19
sg20
g46
sg21
F0.0
sg22
g47
sg23
F2856.0
sg24
F0.0
sg25
F4.959489772662293
sg26
g48
sg27
F0.0
sg28
F30766064.0
sg29
g49
sg30
g82
sg31
F0.0
sg32
F91093.0
sg33
g34
sg35
g50
sg36
I3
sg37
F30766064.0
sg39
g51
ssS'DIETRICH JANET R'
p399
(dp400
g3
F2572.0
sg4
F0.0
sg5
g6
sg7
F0.2222222222222222
sg8
F3475.0
sg9
F3275551.0
sg10
I00
sg11
F556416.0
sg12
S'janet.dietrich@enron.com'
p401
sg14
F305.0
sg15
g16
sg17
F0.0
sg18
g19
sg20
F1902.0
sg21
F0.0
sg22
F63.0
sg23
F473.0
sg24
F0.0
sg25
F6.149362313819666
sg26
F21.785714285714285
sg27
F600000.0
sg28
F1865087.0
sg29
F14.0
sg30
F315068.0
sg31
F250100.0
sg32
F1410464.0
sg33
g34
sg35
F0.73950233281493
sg36
I5
sg37
F1550019.0
sg39
F0.11858475894245724
ssS'DERRICK JR. JAMES V'
p402
(dp403
g3
F2181.0
sg4
F0.0
sg5
g6
sg7
F0.022002200220022004
sg8
F51124.0
sg9
F9382894.0
sg10
I00
sg11
F484000.0
sg12
S'james.derrick@enron.com'
p404
sg14
F64.0
sg15
g16
sg17
F-1284000.0
sg18
F-1787380.0
sg20
F1401.0
sg21
F0.0
sg22
F909.0
sg23
F7482.0
sg24
F0.0
sg25
F5.741137411141505
sg26
F3.2
sg27
F800000.0
sg28
F8831913.0
sg29
F20.0
sg30
F1787380.0
sg31
F492375.0
sg32
F550981.0
sg33
g34
sg35
F0.6423658872077029
sg36
I6
sg37
F8831913.0
sg39
F0.029344337459880788
ssS'FREVERT MARK A'
p405
(dp406
g3
F3275.0
sg4
F6426990.0
sg5
F10825540.0
sg7
F0.2857142857142857
sg8
F86987.0
sg9
F31874715.0
sg10
I00
sg11
F1617011.0
sg12
S'mark.frevert@enron.com'
p407
sg14
F242.0
sg15
F1.3507118351601861
sg17
F-3367011.0
sg18
g19
sg20
F2979.0
sg21
F2000000.0
sg22
F21.0
sg23
F7427621.0
sg24
F0.0
sg25
F7.236852816435483
sg26
F40.333333333333336
sg27
F2000000.0
sg28
F14622185.0
sg29
F6.0
sg30
F4188667.0
sg31
F1060932.0
sg32
F17252530.0
sg33
F0.09800268624013213
sg35
F0.909618320610687
sg36
I8
sg37
F10433518.0
sg39
F0.07389312977099237
ssS'PAI LOU L'
p408
(dp409
g3
g42
sg4
F0.0
sg5
g6
sg7
g43
sg8
F32047.0
sg9
F26941313.0
sg10
I00
sg11
F0.0
sg12
S'lou.pai@enron.com'
p410
sg14
g45
sg15
g16
sg17
F0.0
sg18
g19
sg20
g46
sg21
F0.0
sg22
g47
sg23
F1829457.0
sg24
F0.0
sg25
F6.49462538122957
sg26
g48
sg27
F1000000.0
sg28
F23817930.0
sg29
g49
sg30
F8453763.0
sg31
F261879.0
sg32
F3123383.0
sg33
g34
sg35
g50
sg36
I4
sg37
F15364167.0
sg39
g51
ssS'BAY FRANKLIN R'
p411
(dp412
g3
g42
sg4
F260455.0
sg5
F567241.0
sg7
g43
sg8
F129142.0
sg9
F890710.0
sg10
I00
sg11
F0.0
sg12
S'frank.bay@enron.com'
p413
sg14
g45
sg15
F0.111088584922458
sg17
F-201641.0
sg18
F-82782.0
sg20
g46
sg21
F0.0
sg22
g47
sg23
F69.0
sg24
F0.0
sg25
F5.917871381094937
sg26
g48
sg27
F400000.0
sg28
F63014.0
sg29
g49
sg30
F145796.0
sg31
F239671.0
sg32
F827696.0
sg33
F0.42252058648793017
sg35
g50
sg36
I6
sg37
g38
sg39
g51
ssS'HAYSLETT RODERICK J'
p414
(dp415
g3
F2649.0
sg4
F0.0
sg5
g6
sg7
F0.03581526861451461
sg8
F0.0
sg9
g57
sg10
I00
sg11
F0.0
sg12
S'rod.hayslett@enron.com'
p416
sg14
F35.0
sg15
g16
sg17
F0.0
sg18
g19
sg20
F571.0
sg21
F0.0
sg22
F1061.0
sg23
F0.0
sg24
F0.0
sg25
g59
sg26
F0.9210526315789473
sg27
F0.0
sg28
F346663.0
sg29
F38.0
sg30
F346663.0
sg31
F0.0
sg32
g60
sg33
g34
sg35
F0.21555303888259722
sg36
I0
sg37
g38
sg39
F0.01321253303133258
ssS'FUGH JOHN L'
p417
(dp418
g3
g42
sg4
F50591.0
sg5
F0.0
sg7
g43
sg8
F0.0
sg9
F226969.0
sg10
I00
sg11
F0.0
sg12
g44
sg14
g45
sg15
g16
sg17
F0.0
sg18
g19
sg20
g46
sg21
F0.0
sg22
g47
sg23
F0.0
sg24
F0.0
sg25
F4.704081848252115
sg26
g48
sg27
F0.0
sg28
F176378.0
sg29
g49
sg30
g82
sg31
F0.0
sg32
F50591.0
sg33
g34
sg35
g50
sg36
I1
sg37
F176378.0
sg39
g51
ssS'FALLON JAMES B'
p419
(dp420
g3
F1755.0
sg4
F0.0
sg5
g6
sg7
F0.49333333333333335
sg8
F95924.0
sg9
F6008739.0
sg10
I00
sg11
F374347.0
sg12
S'jim.fallon@enron.com'
p421
sg14
F42.0
sg15
g16
sg17
F0.0
sg18
g19
sg20
F1604.0
sg21
F0.0
sg22
F75.0
sg23
F401481.0
sg24
F0.0
sg25
F6.565415787684109
sg26
F1.135135135135135
sg27
F2500000.0
sg28
F2332399.0
sg29
F37.0
sg30
F1392142.0
sg31
F304588.0
sg32
F3676340.0
sg33
g34
sg35
F0.913960113960114
sg36
I5
sg37
F940257.0
sg39
F0.023931623931623933
ssS'KOENIG MARK E'
p422
(dp423
g3
F2374.0
sg4
F0.0
sg5
g6
sg7
F0.2459016393442623
sg8
F127017.0
sg9
F3507476.0
sg10
I01
sg11
F300000.0
sg12
S'mark.koenig@enron.com'
p424
sg14
F53.0
sg15
g16
sg17
F0.0
sg18
g19
sg20
F2271.0
sg21
F0.0
sg22
F61.0
sg23
F150458.0
sg24
F0.0
sg25
F6.200692394876253
sg26
F3.533333333333333
sg27
F700000.0
sg28
F1920055.0
sg29
F15.0
sg30
F1248318.0
sg31
F309946.0
sg32
F1587421.0
sg33
g34
sg35
F0.9566133108677338
sg36
I5
sg37
F671737.0
sg39
F0.02232518955349621
ssS'SAVAGE FRANK'
p425
(dp426
g3
g42
sg4
F0.0
sg5
g6
sg7
g43
sg8
F0.0
sg9
g57
sg10
I00
sg11
F0.0
sg12
g44
sg14
g45
sg15
g16
sg17
F-121284.0
sg18
g19
sg20
g46
sg21
F0.0
sg22
g47
sg23
F0.0
sg24
F125034.0
sg25
F3.574147064150723
sg26
g48
sg27
F0.0
sg28
g86
sg29
g49
sg30
g82
sg31
F0.0
sg32
F3750.0
sg33
g34
sg35
g50
sg36
I2
sg37
g38
sg39
g51
ssS'IZZO LAWRENCE L'
p427
(dp428
g3
F496.0
sg4
F0.0
sg5
g6
sg7
F0.2631578947368421
sg8
F28093.0
sg9
F7799576.0
sg10
I00
sg11
F312500.0
sg12
S'larry.izzo@enron.com'
p429
sg14
F28.0
sg15
g16
sg17
F0.0
sg18
g19
sg20
F437.0
sg21
F0.0
sg22
F19.0
sg23
F1553729.0
sg24
F0.0
sg25
F6.296576786983717
sg26
F5.6
sg27
F0.0
sg28
F5819980.0
sg29
F5.0
sg30
F3654808.0
sg31
F85274.0
sg32
F1979596.0
sg33
g34
sg35
F0.8810483870967742
sg36
I4
sg37
F2165172.0
sg39
F0.056451612903225805
ssS'TILNEY ELIZABETH A'
p430
(dp431
g3
F460.0
sg4
F0.0
sg5
g6
sg7
F0.5789473684210527
sg8
F0.0
sg9
F1567435.0
sg10
I00
sg11
F275000.0
sg12
S'elizabeth.tilney@enron.com'
p432
sg14
F10.0
sg15
g16
sg17
F-575000.0
sg18
g19
sg20
F379.0
sg21
F0.0
sg22
F19.0
sg23
F152055.0
sg24
F0.0
sg25
F5.601401536282144
sg26
F0.9090909090909091
sg27
F300000.0
sg28
F1168042.0
sg29
F11.0
sg30
F576792.0
sg31
F247338.0
sg32
F399393.0
sg33
g34
sg35
F0.8239130434782609
sg36
I5
sg37
F591250.0
sg39
F0.021739130434782608
ssS'MARTIN AMANDA K'
p433
(dp434
g3
F1522.0
sg4
F85430.0
sg5
F8321586.0
sg7
F0.0
sg8
F8211.0
sg9
F10477322.0
sg10
I00
sg11
F5145434.0
sg12
S'a..martin@enron.com'
p435
sg14
F8.0
sg15
F0.2487874306652602
sg17
F0.0
sg18
g19
sg20
F477.0
sg21
F0.0
sg22
F230.0
sg23
F2818454.0
sg24
F0.0
sg25
F6.924641925613752
sg26
g48
sg27
F0.0
sg28
F2070306.0
sg29
F0.0
sg30
g82
sg31
F349487.0
sg32
F8407016.0
sg33
F0.041997643237719345
sg35
F0.31340341655716164
sg36
I5
sg37
F2070306.0
sg39
F0.005256241787122208
ssS'BUY RICHARD B'
p436
(dp437
g3
F3523.0
sg4
F649584.0
sg5
F1706118.0
sg7
F0.06742640075973409
sg8
F0.0
sg9
F5800172.0
sg10
I00
sg11
F769862.0
sg12
S'rick.buy@enron.com'
p438
sg14
F156.0
sg15
F2.018893183238205
sg17
F-694862.0
sg18
g19
sg20
F2333.0
sg21
F0.0
sg22
F1053.0
sg23
F400572.0
sg24
F0.0
sg25
F6.372120535014965
sg26
F2.1971830985915495
sg27
F900000.0
sg28
F3444470.0
sg29
F71.0
sg30
F901657.0
sg31
F330546.0
sg32
F2355702.0
sg33
F0.19374158176632567
sg35
F0.6622196991200682
sg36
I6
sg37
F2542813.0
sg39
F0.04428044280442804
ssS'GRAMM WENDY L'
p439
(dp440
g3
g42
sg4
F0.0
sg5
g6
sg7
g43
sg8
F0.0
sg9
g57
sg10
I00
sg11
F0.0
sg12
g44
sg14
g45
sg15
g16
sg17
F0.0
sg18
g19
sg20
g46
sg21
F0.0
sg22
g47
sg23
F0.0
sg24
F119292.0
sg25
F5.076614960430061
sg26
g48
sg27
F0.0
sg28
g86
sg29
g49
sg30
g82
sg31
F0.0
sg32
F119292.0
sg33
g34
sg35
g50
sg36
I1
sg37
g38
sg39
g51
ssS'CAUSEY RICHARD A'
p441
(dp442
g3
F1892.0
sg4
F0.0
sg5
g6
sg7
F0.24489795918367346
sg8
F30674.0
sg9
F4370821.0
sg10
I01
sg11
F350000.0
sg12
S'richard.causey@enron.com'
p443
sg14
F58.0
sg15
g16
sg17
F-235000.0
sg18
g19
sg20
F1585.0
sg21
F0.0
sg22
F49.0
sg23
F307895.0
sg24
F0.0
sg25
F6.271553297248933
sg26
F4.833333333333333
sg27
F1000000.0
sg28
F2502063.0
sg29
F12.0
sg30
F2502063.0
sg31
F415189.0
sg32
F1868758.0
sg33
g34
sg35
F0.837737843551797
sg36
I6
sg37
g38
sg39
F0.0306553911205074
ssS'TAYLOR MITCHELL S'
p444
(dp445
g3
F533.0
sg4
F227449.0
sg5
F865214.0
sg7
F0.0
sg8
F0.0
sg9
F4837711.0
sg10
I00
sg11
F0.0
sg12
S'mitchell.taylor@enron.com'
p446
sg14
F0.0
sg15
F4.328464403026303
sg17
F0.0
sg18
g19
sg20
F300.0
sg21
F0.0
sg22
F29.0
sg23
F0.0
sg24
F0.0
sg25
F6.0384866346124095
sg26
g48
sg27
F600000.0
sg28
F3745048.0
sg29
F0.0
sg30
F563798.0
sg31
F265214.0
sg32
F1092663.0
sg33
F0.30652994519275
sg35
F0.5628517823639775
sg36
I3
sg37
F3181250.0
sg39
F0.0
ssS'DONAHUE JR JEFFREY M'
p447
(dp448
g3
F865.0
sg4
F0.0
sg5
g6
sg7
F0.5
sg8
F96268.0
sg9
F1956748.0
sg10
I00
sg11
F0.0
sg12
S'jeff.donahue@enron.com'
p449
sg14
F188.0
sg15
g16
sg17
F-300000.0
sg18
g19
sg20
F772.0
sg21
F0.0
sg22
F22.0
sg23
F891.0
sg24
F0.0
sg25
F5.942385600981792
sg26
F17.09090909090909
sg27
F800000.0
sg28
F1080988.0
sg29
F11.0
sg30
F315068.0
sg31
F278601.0
sg32
F875760.0
sg33
g34
sg35
F0.892485549132948
sg36
I5
sg37
F765920.0
sg39
F0.21734104046242775
ssS'GLISAN JR BEN F'
p450
(dp451
g3
F873.0
sg4
F0.0
sg5
g6
sg7
F0.375
sg8
F125978.0
sg9
F2050830.0
sg10
I01
sg11
F71023.0
sg12
S'ben.glisan@enron.com'
p452
sg14
F52.0
sg15
g16
sg17
F0.0
sg18
g19
sg20
F874.0
sg21
F0.0
sg22
F16.0
sg23
F200308.0
sg24
F0.0
sg25
F6.104584406959589
sg26
F8.666666666666666
sg27
F600000.0
sg28
F778546.0
sg29
F6.0
sg30
F393818.0
sg31
F274975.0
sg32
F1272284.0
sg33
g34
sg35
F1.0011454753722795
sg36
I5
sg37
F384728.0
sg39
F0.05956471935853379
ss.