(dp0
S'METTS MARK'
p1
(dp2
S'to_messages'
p3
F807.0
sS'deferral_payments'
p4
F0.0
sS'adjusted_payments'
p5
S'NaN'
p6
sS'outbox_poi_ratio'
p7
F0.034482758620689655
sS'expenses'
p8
F94299.0
sS'poi'
p9
I00
sS'long_term_incentive'
p10
F0.0
sS'email_address'
p11
S'mark.metts@enron.com'
p12
sS'from_poi_to_this_person'
p13
F38.0
sS'payment_to_stock_value_ratio'
p14
S'NaN'
p15
sS'deferred_income'
p16
F0.0
sS'restricted_stock_deferred'
p17
S'NaN'
p18
sS'shared_receipt_with_poi'
p19
F702.0
sS'loan_advances'
p20
F0.0
sS'from_messages'
p21
F29.0
sS'other'
p22
F1740.0
sS'director_fees'
p23
F0.0
sS'poi_inbox_outbox_ratio'
p24
F38.0
sS'bonus'
p25
F600000.0
sS'total_stock_value'
p26
F585062.0
sS'from_this_person_to_poi'
p27
F1.0
sS'restricted_stock'
p28
F585062.0
sS'salary'
p29
F365788.0
sS'total_payments'
p30
F1061827.0
sS'salary_ratio'
p31
S'NaN'
p32
sS'shared_poi_ratio'
p33
F0.8698884758364313
sS'payments_score'
p34
I4
sS'exercised_stock_options'
p35
S'NaN'
p36
sS'inbox_poi_ratio'
p37
F0.04708798017348203
ssS'BAXTER JOHN C'
p38
(dp39
g3
S'NaN'
p40
sg4
F1295738.0
sg5
F4338605.0
sg7
S'NaN'
p41
sg8
F11200.0
sg9
I00
sg10
F1586055.0
sg11
S'NaN'
p42
sg13
S'NaN'
p43
sg14
F2.4485423310027072
sg16
F-1386055.0
sg17
g18
sg19
S'NaN'
p44
sg20
F0.0
sg21
S'NaN'
p45
sg22
F2660303.0
sg23
F0.0
sg24
S'NaN'
p46
sg25
F1200000.0
sg26
F10623258.0
sg27
S'NaN'
p47
sg28
F3942714.0
sg29
F267102.0
sg30
F5634343.0
sg31
F0.06156402806892999
sg33
S'NaN'
p48
sg34
I7
sg35
F6680544.0
sg37
S'NaN'
p49
ssS'ELLIOTT STEVEN'
p50
(dp51
g3
g40
sg4
F0.0
sg5
g6
sg7
g41
sg8
F78552.0
sg9
I00
sg10
F0.0
sg11
S'steven.elliott@enron.com'
p52
sg13
g43
sg14
g15
sg16
F-400729.0
sg17
g18
sg19
g44
sg20
F0.0
sg21
g45
sg22
F12961.0
sg23
F0.0
sg24
g46
sg25
F350000.0
sg26
F6678735.0
sg27
g47
sg28
F1788391.0
sg29
F170941.0
sg30
F211725.0
sg31
g32
sg33
g48
sg34
I5
sg35
F4890344.0
sg37
g49
ssS'CORDES WILLIAM R'
p53
(dp54
g3
F764.0
sg4
F0.0
sg5
g6
sg7
F0.0
sg8
F0.0
sg9
I00
sg10
F0.0
sg11
S'bill.cordes@enron.com'
p55
sg13
F10.0
sg14
g15
sg16
F0.0
sg17
g18
sg19
F58.0
sg20
F0.0
sg21
F12.0
sg22
F0.0
sg23
F0.0
sg24
g46
sg25
F0.0
sg26
F1038185.0
sg27
F0.0
sg28
F386335.0
sg29
F0.0
sg30
S'NaN'
p56
sg31
g32
sg33
F0.07591623036649214
sg34
I0
sg35
F651850.0
sg37
F0.013089005235602094
ssS'HANNON KEVIN P'
p57
(dp58
g3
F1045.0
sg4
F0.0
sg5
g6
sg7
F0.65625
sg8
F34039.0
sg9
I01
sg10
F1617011.0
sg11
S'kevin.hannon@enron.com'
p59
sg13
F32.0
sg14
g15
sg16
F-3117011.0
sg17
g18
sg19
F1035.0
sg20
F0.0
sg21
F32.0
sg22
F11350.0
sg23
F0.0
sg24
F1.5238095238095237
sg25
F1500000.0
sg26
F6391065.0
sg27
F21.0
sg28
F853064.0
sg29
F243293.0
sg30
F288682.0
sg31
g32
sg33
F0.9904306220095693
sg34
I6
sg35
F5538001.0
sg37
F0.03062200956937799
ssS'MORDAUNT KRISTINA M'
p60
(dp61
g3
g40
sg4
F0.0
sg5
g6
sg7
g41
sg8
F35018.0
sg9
I00
sg10
F0.0
sg11
S'kristina.mordaunt@enron.com'
p62
sg13
g43
sg14
g15
sg16
F0.0
sg17
g18
sg19
g44
sg20
F0.0
sg21
g45
sg22
F1411.0
sg23
F0.0
sg24
g46
sg25
F325000.0
sg26
F208510.0
sg27
g47
sg28
F208510.0
sg29
F267093.0
sg30
F628522.0
sg31
g32
sg33
g48
sg34
I4
sg35
g36
sg37
g49
ssS'MEYER ROCKFORD G'
p63
(dp64
g3
F232.0
sg4
F1848227.0
sg5
F0.0
sg7
F0.0
sg8
F0.0
sg9
I00
sg10
F0.0
sg11
S'rockford.meyer@enron.com'
p65
sg13
F0.0
sg14
g15
sg16
F0.0
sg17
g18
sg19
F22.0
sg20
F0.0
sg21
F28.0
sg22
F0.0
sg23
F0.0
sg24
g46
sg25
F0.0
sg26
F955873.0
sg27
F0.0
sg28
F462384.0
sg29
F0.0
sg30
F1848227.0
sg31
g32
sg33
F0.09482758620689655
sg34
I1
sg35
F493489.0
sg37
F0.0
ssS'MCMAHON JEFFREY'
p66
(dp67
g3
F2355.0
sg4
F0.0
sg5
g6
sg7
F0.5416666666666666
sg8
F137108.0
sg9
I00
sg10
F694862.0
sg11
S'jeffrey.mcmahon@enron.com'
p68
sg13
F58.0
sg14
g15
sg16
F0.0
sg17
g18
sg19
F2228.0
sg20
F0.0
sg21
F48.0
sg22
F297353.0
sg23
F0.0
sg24
F2.230769230769231
sg25
F2600000.0
sg26
F1662855.0
sg27
F26.0
sg28
F558801.0
sg29
F370448.0
sg30
F4099771.0
sg31
g32
sg33
F0.9460721868365181
sg34
I5
sg35
F1104054.0
sg37
F0.024628450106157114
ssS'HORTON STANLEY C'
p69
(dp70
g3
F2350.0
sg4
F3131860.0
sg5
F0.0
sg7
F0.013979496738117428
sg8
F0.0
sg9
I00
sg10
F0.0
sg11
S'stanley.horton@enron.com'
p71
sg13
F44.0
sg14
g15
sg16
F0.0
sg17
g18
sg19
F1074.0
sg20
F0.0
sg21
F1073.0
sg22
F0.0
sg23
F0.0
sg24
F2.933333333333333
sg25
F0.0
sg26
F7256648.0
sg27
F15.0
sg28
F2046079.0
sg29
F0.0
sg30
F3131860.0
sg31
g32
sg33
F0.4570212765957447
sg34
I1
sg35
F5210569.0
sg37
F0.01872340425531915
ssS'PIPER GREGORY F'
p72
(dp73
g3
F1238.0
sg4
F1130036.0
sg5
F607593.0
sg7
F0.21621621621621623
sg8
F43057.0
sg9
I00
sg10
F0.0
sg11
S'greg.piper@enron.com'
p74
sg13
F61.0
sg14
F1.4488152430985874
sg16
F-33333.0
sg17
F-409554.0
sg19
F742.0
sg20
F0.0
sg21
F222.0
sg22
F778.0
sg23
F0.0
sg24
F1.2708333333333333
sg25
F400000.0
sg26
F880290.0
sg27
F48.0
sg28
F409554.0
sg29
F197091.0
sg30
F1737629.0
sg31
F0.32437997146115904
sg33
F0.5993537964458805
sg34
I6
sg35
F880290.0
sg37
F0.049273021001615507
ssS'HUMPHREY GENE E'
p75
(dp76
g3
F128.0
sg4
F2964506.0
sg5
F135718.0
sg7
F1.0
sg8
F4994.0
sg9
I00
sg10
F0.0
sg11
S'gene.humphrey@enron.com'
p77
sg13
F10.0
sg14
F16.81993545439809
sg16
F0.0
sg17
g18
sg19
F119.0
sg20
F0.0
sg21
F17.0
sg22
F0.0
sg23
F0.0
sg24
F0.5882352941176471
sg25
F0.0
sg26
F2282768.0
sg27
F17.0
sg28
S'NaN'
p78
sg29
F130724.0
sg30
F3100224.0
sg31
F0.9632031123358729
sg33
F0.9296875
sg34
I3
sg35
F2282768.0
sg37
F0.078125
ssS'UMANOFF ADAM S'
p79
(dp80
g3
F111.0
sg4
F0.0
sg5
g6
sg7
F0.0
sg8
F53122.0
sg9
I00
sg10
F0.0
sg11
S'adam.umanoff@enron.com'
p81
sg13
F12.0
sg14
g15
sg16
F0.0
sg17
g18
sg19
F41.0
sg20
F0.0
sg21
F18.0
sg22
F0.0
sg23
F0.0
sg24
g46
sg25
F788750.0
sg26
S'NaN'
p82
sg27
F0.0
sg28
g78
sg29
F288589.0
sg30
F1130461.0
sg31
g32
sg33
F0.36936936936936937
sg34
I3
sg35
g36
sg37
F0.10810810810810811
ssS'BLACHMAN JEREMY M'
p83
(dp84
g3
F2475.0
sg4
F0.0
sg5
g6
sg7
F0.14285714285714285
sg8
F84208.0
sg9
I00
sg10
F831809.0
sg11
S'jeremy.blachman@enron.com'
p85
sg13
F25.0
sg14
g15
sg16
F0.0
sg17
g18
sg19
F2326.0
sg20
F0.0
sg21
F14.0
sg22
F272.0
sg23
F0.0
sg24
F12.5
sg25
F850000.0
sg26
F954354.0
sg27
F2.0
sg28
F189041.0
sg29
F248546.0
sg30
F2014835.0
sg31
g32
sg33
F0.9397979797979797
sg34
I5
sg35
F765313.0
sg37
F0.010101010101010102
ssS'SUNDE MARTIN'
p86
(dp87
g3
F2647.0
sg4
F0.0
sg5
g6
sg7
F0.34210526315789475
sg8
F0.0
sg9
I00
sg10
F476451.0
sg11
S'marty.sunde@enron.com'
p88
sg13
F37.0
sg14
g15
sg16
F0.0
sg17
g18
sg19
F2565.0
sg20
F0.0
sg21
F38.0
sg22
F111122.0
sg23
F0.0
sg24
F2.8461538461538463
sg25
F700000.0
sg26
F698920.0
sg27
F13.0
sg28
F698920.0
sg29
F257486.0
sg30
F1545059.0
sg31
g32
sg33
F0.9690215338118625
sg34
I4
sg35
g36
sg37
F0.013978088401964487
ssS'GIBBS DANA R'
p89
(dp90
g3
F169.0
sg4
F504610.0
sg5
F461912.0
sg7
F0.0
sg8
F0.0
sg9
I00
sg10
F461912.0
sg11
S'dana.gibbs@enron.com'
p91
sg13
F0.0
sg14
F4.802375777204316
sg16
F0.0
sg17
g18
sg19
F23.0
sg20
F0.0
sg21
F12.0
sg22
F0.0
sg23
F0.0
sg24
g46
sg25
F0.0
sg26
F2218275.0
sg27
F0.0
sg28
g78
sg29
F0.0
sg30
F966522.0
sg31
g32
sg33
F0.13609467455621302
sg34
I2
sg35
F2218275.0
sg37
F0.0
ssS'LOWRY CHARLES P'
p92
(dp93
g3
g40
sg4
F0.0
sg5
g6
sg7
g41
sg8
F0.0
sg9
I00
sg10
F0.0
sg11
g42
sg13
g43
sg14
g15
sg16
F0.0
sg17
F-153686.0
sg19
g44
sg20
F0.0
sg21
g45
sg22
F0.0
sg23
F0.0
sg24
g46
sg25
F0.0
sg26
F372205.0
sg27
g47
sg28
F153686.0
sg29
F0.0
sg30
g56
sg31
g32
sg33
g48
sg34
I0
sg35
F372205.0
sg37
g49
ssS'COLWELL WESLEY'
p94
(dp95
g3
F1758.0
sg4
F27610.0
sg5
F1462734.0
sg7
F0.275
sg8
F16514.0
sg9
I01
sg10
F0.0
sg11
S'wes.colwell@enron.com'
p96
sg13
F240.0
sg14
F0.47735405070231496
sg16
F-144062.0
sg17
g18
sg19
F1132.0
sg20
F0.0
sg21
F40.0
sg22
F101740.0
sg23
F0.0
sg24
F21.818181818181817
sg25
F1200000.0
sg26
F698242.0
sg27
F11.0
sg28
F698242.0
sg29
F288542.0
sg30
F1490344.0
sg31
F0.19726211327555113
sg33
F0.6439135381114903
sg34
I6
sg35
g36
sg37
F0.13651877133105803
ssS'MULLER MARK S'
p97
(dp98
g3
F136.0
sg4
F842924.0
sg5
F2359146.0
sg7
F0.0
sg8
F0.0
sg9
I00
sg10
F1725545.0
sg11
S's..muller@enron.com'
p99
sg13
F12.0
sg14
F0.60057664934684
sg16
F-719000.0
sg17
g18
sg19
F114.0
sg20
F0.0
sg21
F16.0
sg22
F947.0
sg23
F0.0
sg24
g46
sg25
F1100000.0
sg26
F1416848.0
sg27
F0.0
sg28
F360528.0
sg29
F251654.0
sg30
F3202070.0
sg31
F0.1066716515213556
sg33
F0.8382352941176471
sg34
I6
sg35
F1056320.0
sg37
F0.08823529411764706
ssS'JACKSON CHARLENE R'
p100
(dp101
g3
F258.0
sg4
F0.0
sg5
g6
sg7
F0.3392857142857143
sg8
F10181.0
sg9
I00
sg10
F0.0
sg11
S'charlene.jackson@enron.com'
p102
sg13
F25.0
sg14
g15
sg16
F0.0
sg17
g18
sg19
F117.0
sg20
F0.0
sg21
F56.0
sg22
F2435.0
sg23
F0.0
sg24
F1.3157894736842106
sg25
F250000.0
sg26
F725735.0
sg27
F19.0
sg28
F540672.0
sg29
F288558.0
sg30
F551174.0
sg31
g32
sg33
F0.45348837209302323
sg34
I4
sg35
F185063.0
sg37
F0.09689922480620156
ssS'WESTFAHL RICHARD K'
p103
(dp104
g3
g40
sg4
F0.0
sg5
g6
sg7
g41
sg8
F51870.0
sg9
I00
sg10
F256191.0
sg11
S'dick.westfahl@enron.com'
p105
sg13
g43
sg14
g15
sg16
F-10800.0
sg17
g18
sg19
g44
sg20
F0.0
sg21
g45
sg22
F401130.0
sg23
F0.0
sg24
g46
sg25
F0.0
sg26
F384930.0
sg27
g47
sg28
F384930.0
sg29
F63744.0
sg30
F762135.0
sg31
g32
sg33
g48
sg34
I5
sg35
g36
sg37
g49
ssS'WALTERS GARETH W'
p106
(dp107
g3
g40
sg4
F53625.0
sg5
F33785.0
sg7
g41
sg8
F33785.0
sg9
I00
sg10
F0.0
sg11
g42
sg13
g43
sg14
F30.496640520941245
sg16
F0.0
sg17
g18
sg19
g44
sg20
F0.0
sg21
g45
sg22
F0.0
sg23
F0.0
sg24
g46
sg25
F0.0
sg26
F1030329.0
sg27
g47
sg28
g78
sg29
F0.0
sg30
F87410.0
sg31
g32
sg33
g48
sg34
I2
sg35
F1030329.0
sg37
g49
ssS'WALLS JR ROBERT H'
p108
(dp109
g3
F671.0
sg4
F0.0
sg5
g6
sg7
F0.0
sg8
F50936.0
sg9
I00
sg10
F540751.0
sg11
S'rob.walls@enron.com'
p110
sg13
F17.0
sg14
g15
sg16
F0.0
sg17
g18
sg19
F215.0
sg20
F0.0
sg21
F146.0
sg22
F2.0
sg23
F0.0
sg24
g46
sg25
F850000.0
sg26
F5898997.0
sg27
F0.0
sg28
F1552453.0
sg29
F357091.0
sg30
F1798780.0
sg31
g32
sg33
F0.3204172876304024
sg34
I5
sg35
F4346544.0
sg37
F0.02533532041728763
ssS'KITCHEN LOUISE'
p111
(dp112
g3
F8305.0
sg4
F0.0
sg5
g6
sg7
F0.11226851851851852
sg8
F5774.0
sg9
I00
sg10
F0.0
sg11
S'louise.kitchen@enron.com'
p113
sg13
F251.0
sg14
g15
sg16
F0.0
sg17
g18
sg19
F3669.0
sg20
F0.0
sg21
F1728.0
sg22
F93925.0
sg23
F0.0
sg24
F1.2938144329896908
sg25
F3100000.0
sg26
F547143.0
sg27
F194.0
sg28
F466101.0
sg29
F271442.0
sg30
F3471141.0
sg31
g32
sg33
F0.441782059000602
sg34
I4
sg35
F81042.0
sg37
F0.030222757375075255
ssS'CHAN RONNIE'
p114
(dp115
g3
g40
sg4
F0.0
sg5
g6
sg7
g41
sg8
F0.0
sg9
I00
sg10
F0.0
sg11
g42
sg13
g43
sg14
g15
sg16
F-98784.0
sg17
F-32460.0
sg19
g44
sg20
F0.0
sg21
g45
sg22
F0.0
sg23
F98784.0
sg24
g46
sg25
F0.0
sg26
g82
sg27
g47
sg28
F32460.0
sg29
F0.0
sg30
g56
sg31
g32
sg33
g48
sg34
I2
sg35
g36
sg37
g49
ssS'BELFER ROBERT'
p116
(dp117
g3
g40
sg4
F-102500.0
sg5
F205000.0
sg7
g41
sg8
F0.0
sg9
I00
sg10
F0.0
sg11
g42
sg13
g43
sg14
F-0.2150878048780488
sg16
F0.0
sg17
F44093.0
sg19
g44
sg20
F0.0
sg21
g45
sg22
F0.0
sg23
F3285.0
sg24
g46
sg25
F0.0
sg26
F-44093.0
sg27
g47
sg28
g78
sg29
F0.0
sg30
F102500.0
sg31
g32
sg33
g48
sg34
I2
sg35
F3285.0
sg37
g49
ssS'SHANKMAN JEFFREY A'
p118
(dp119
g3
F3221.0
sg4
F0.0
sg5
g6
sg7
F0.030958597538232
sg8
F178979.0
sg9
I00
sg10
F554422.0
sg11
S'jeffrey.shankman@enron.com'
p120
sg13
F94.0
sg14
g15
sg16
F0.0
sg17
g18
sg19
F1730.0
sg20
F0.0
sg21
F2681.0
sg22
F1191.0
sg23
F0.0
sg24
F1.1325301204819278
sg25
F2000000.0
sg26
F2072035.0
sg27
F83.0
sg28
F630137.0
sg29
F304110.0
sg30
F3038702.0
sg31
g32
sg33
F0.5371002794163303
sg34
I5
sg35
F1441898.0
sg37
F0.029183483390251473
ssS'WODRASKA JOHN'
p121
(dp122
g3
g40
sg4
F0.0
sg5
g6
sg7
g41
sg8
F0.0
sg9
I00
sg10
F0.0
sg11
S'john.wodraska@enron.com'
p123
sg13
g43
sg14
g15
sg16
F0.0
sg17
g18
sg19
g44
sg20
F0.0
sg21
g45
sg22
F189583.0
sg23
F0.0
sg24
g46
sg25
F0.0
sg26
g82
sg27
g47
sg28
g78
sg29
F0.0
sg30
F189583.0
sg31
g32
sg33
g48
sg34
I1
sg35
g36
sg37
g49
ssS'BERGSIEKER RICHARD P'
p124
(dp125
g3
F383.0
sg4
F0.0
sg5
g6
sg7
F0.0
sg8
F59175.0
sg9
I00
sg10
F180250.0
sg11
S'rick.bergsieker@enron.com'
p126
sg13
F4.0
sg14
g15
sg16
F-485813.0
sg17
g18
sg19
F233.0
sg20
F0.0
sg21
F59.0
sg22
F427316.0
sg23
F0.0
sg24
g46
sg25
F250000.0
sg26
F659249.0
sg27
F0.0
sg28
F659249.0
sg29
F187922.0
sg30
F618850.0
sg31
g32
sg33
F0.608355091383812
sg34
I6
sg35
g36
sg37
F0.010443864229765013
ssS'URQUHART JOHN A'
p127
(dp128
g3
g40
sg4
F0.0
sg5
g6
sg7
g41
sg8
F228656.0
sg9
I00
sg10
F0.0
sg11
g42
sg13
g43
sg14
g15
sg16
F-36666.0
sg17
g18
sg19
g44
sg20
F0.0
sg21
g45
sg22
F0.0
sg23
F36666.0
sg24
g46
sg25
F0.0
sg26
g82
sg27
g47
sg28
g78
sg29
F0.0
sg30
F228656.0
sg31
g32
sg33
g48
sg34
I3
sg35
g36
sg37
g49
ssS'BIBI PHILIPPE A'
p129
(dp130
g3
F1607.0
sg4
F0.0
sg5
g6
sg7
F0.2
sg8
F38559.0
sg9
I00
sg10
F369721.0
sg11
S'philippe.bibi@enron.com'
p131
sg13
F23.0
sg14
g15
sg16
F0.0
sg17
g18
sg19
F1336.0
sg20
F0.0
sg21
F40.0
sg22
F425688.0
sg23
F0.0
sg24
F2.875
sg25
F1000000.0
sg26
F1843816.0
sg27
F8.0
sg28
F378082.0
sg29
F213625.0
sg30
F2047593.0
sg31
g32
sg33
F0.8313627878033603
sg34
I5
sg35
F1465734.0
sg37
F0.01431238332296204
ssS'PIRO JIM'
p132
(dp133
g3
F58.0
sg4
F0.0
sg5
g6
sg7
F0.0625
sg8
F0.0
sg9
I00
sg10
F0.0
sg11
S'jim.piro@enron.com'
p134
sg13
F0.0
sg14
g15
sg16
F0.0
sg17
g18
sg19
F3.0
sg20
F0.0
sg21
F16.0
sg22
F0.0
sg23
F0.0
sg24
F0.0
sg25
F0.0
sg26
F47304.0
sg27
F1.0
sg28
F47304.0
sg29
F0.0
sg30
g56
sg31
g32
sg33
F0.05172413793103448
sg34
I0
sg35
g36
sg37
F0.0
ssS'RIEKER PAULA H'
p135
(dp136
g3
F1328.0
sg4
F214678.0
sg5
F884422.0
sg7
F0.5853658536585366
sg8
F33271.0
sg9
I01
sg10
F0.0
sg11
S'paula.rieker@enron.com'
p137
sg13
F35.0
sg14
F2.169650913251819
sg16
F-100000.0
sg17
g18
sg19
F1258.0
sg20
F0.0
sg21
F82.0
sg22
F1950.0
sg23
F0.0
sg24
F0.7291666666666666
sg25
F700000.0
sg26
F1918887.0
sg27
F48.0
sg28
F283649.0
sg29
F249201.0
sg30
F1099100.0
sg31
F0.28176707499361164
sg33
F0.947289156626506
sg34
I6
sg35
F1635238.0
sg37
F0.02635542168674699
ssS'WHALEY DAVID A'
p138
(dp139
g3
g40
sg4
F0.0
sg5
g6
sg7
g41
sg8
F0.0
sg9
I00
sg10
F0.0
sg11
g42
sg13
g43
sg14
g15
sg16
F0.0
sg17
g18
sg19
g44
sg20
F0.0
sg21
g45
sg22
F0.0
sg23
F0.0
sg24
g46
sg25
F0.0
sg26
F98718.0
sg27
g47
sg28
g78
sg29
F0.0
sg30
g56
sg31
g32
sg33
g48
sg34
I0
sg35
F98718.0
sg37
g49
ssS'BECK SALLY W'
p140
(dp141
g3
F7315.0
sg4
F0.0
sg5
g6
sg7
F0.08887865530739121
sg8
F37172.0
sg9
I00
sg10
F0.0
sg11
S'sally.beck@enron.com'
p142
sg13
F144.0
sg14
g15
sg16
F0.0
sg17
g18
sg19
F2639.0
sg20
F0.0
sg21
F4343.0
sg22
F566.0
sg23
F0.0
sg24
F0.37305699481865284
sg25
F700000.0
sg26
F126027.0
sg27
F386.0
sg28
F126027.0
sg29
F231330.0
sg30
F969068.0
sg31
g32
sg33
F0.36076555023923446
sg34
I4
sg35
g36
sg37
F0.01968557758031442
ssS'HAUG DAVID L'
p143
(dp144
g3
F573.0
sg4
F0.0
sg5
g6
sg7
F0.3684210526315789
sg8
F475.0
sg9
I00
sg10
F0.0
sg11
S'david.haug@enron.com'
p145
sg13
F4.0
sg14
g15
sg16
F0.0
sg17
g18
sg19
F471.0
sg20
F0.0
sg21
F19.0
sg22
F0.0
sg23
F0.0
sg24
F0.5714285714285714
sg25
F0.0
sg26
F2217299.0
sg27
F7.0
sg28
F2217299.0
sg29
F0.0
sg30
F475.0
sg31
g32
sg33
F0.8219895287958116
sg34
I1
sg35
g36
sg37
F0.006980802792321117
ssS'ECHOLS JOHN B'
p146
(dp147
g3
g40
sg4
F0.0
sg5
g6
sg7
g41
sg8
F21530.0
sg9
I00
sg10
F2234774.0
sg11
S'john.echols@enron.com'
p148
sg13
g43
sg14
g15
sg16
F0.0
sg17
g18
sg19
g44
sg20
F0.0
sg21
g45
sg22
F53775.0
sg23
F0.0
sg24
g46
sg25
F200000.0
sg26
F1008941.0
sg27
g47
sg28
F407503.0
sg29
F182245.0
sg30
F2692324.0
sg31
g32
sg33
g48
sg34
I5
sg35
F601438.0
sg37
g49
ssS'MENDELSOHN JOHN'
p149
(dp150
g3
g40
sg4
F0.0
sg5
g6
sg7
g41
sg8
F148.0
sg9
I00
sg10
F0.0
sg11
g42
sg13
g43
sg14
g15
sg16
F-103750.0
sg17
g18
sg19
g44
sg20
F0.0
sg21
g45
sg22
F0.0
sg23
F103750.0
sg24
g46
sg25
F0.0
sg26
g82
sg27
g47
sg28
g78
sg29
F0.0
sg30
F148.0
sg31
g32
sg33
g48
sg34
I3
sg35
g36
sg37
g49
ssS'HICKERSON GARY J'
p151
(dp152
g3
F1320.0
sg4
F0.0
sg5
g6
sg7
F0.037037037037037035
sg8
F98849.0
sg9
I00
sg10
F69223.0
sg11
S'gary.hickerson@enron.com'
p153
sg13
F40.0
sg14
g15
sg16
F0.0
sg17
g18
sg19
F900.0
sg20
F0.0
sg21
F27.0
sg22
F1936.0
sg23
F0.0
sg24
F40.0
sg25
F1700000.0
sg26
F441096.0
sg27
F1.0
sg28
F441096.0
sg29
F211788.0
sg30
F2081796.0
sg31
g32
sg33
F0.6818181818181818
sg34
I5
sg35
g36
sg37
F0.030303030303030304
ssS'CLINE KENNETH W'
p154
(dp155
g3
g40
sg4
F0.0
sg5
g6
sg7
g41
sg8
F0.0
sg9
I00
sg10
F0.0
sg11
g42
sg13
g43
sg14
g15
sg16
F0.0
sg17
F-472568.0
sg19
g44
sg20
F0.0
sg21
g45
sg22
F0.0
sg23
F0.0
sg24
g46
sg25
F0.0
sg26
F189518.0
sg27
g47
sg28
F662086.0
sg29
F0.0
sg30
g56
sg31
g32
sg33
g48
sg34
I0
sg35
g36
sg37
g49
ssS'LEWIS RICHARD'
p156
(dp157
g3
F952.0
sg4
F0.0
sg5
g6
sg7
F0.0
sg8
F0.0
sg9
I00
sg10
F0.0
sg11
S'richard.lewis@enron.com'
p158
sg13
F10.0
sg14
g15
sg16
F0.0
sg17
g18
sg19
F739.0
sg20
F0.0
sg21
F26.0
sg22
F0.0
sg23
F0.0
sg24
g46
sg25
F0.0
sg26
F850477.0
sg27
F0.0
sg28
g78
sg29
F0.0
sg30
g56
sg31
g32
sg33
F0.7762605042016807
sg34
I0
sg35
F850477.0
sg37
F0.01050420168067227
ssS'HAYES ROBERT E'
p159
(dp160
g3
F504.0
sg4
F7961.0
sg5
F0.0
sg7
F0.0
sg8
F0.0
sg9
I00
sg10
F0.0
sg11
S'robert.hayes@enron.com'
p161
sg13
F16.0
sg14
g15
sg16
F0.0
sg17
g18
sg19
F50.0
sg20
F0.0
sg21
F12.0
sg22
F0.0
sg23
F0.0
sg24
g46
sg25
F0.0
sg26
F151418.0
sg27
F0.0
sg28
F151418.0
sg29
F0.0
sg30
F7961.0
sg31
g32
sg33
F0.0992063492063492
sg34
I1
sg35
g36
sg37
F0.031746031746031744
ssS'KOPPER MICHAEL J'
p162
(dp163
g3
g40
sg4
F0.0
sg5
g6
sg7
g41
sg8
F118134.0
sg9
I01
sg10
F602671.0
sg11
S'michael.kopper@enron.com'
p164
sg13
g43
sg14
g15
sg16
F0.0
sg17
g18
sg19
g44
sg20
F0.0
sg21
g45
sg22
F907502.0
sg23
F0.0
sg24
g46
sg25
F800000.0
sg26
F985032.0
sg27
g47
sg28
F985032.0
sg29
F224305.0
sg30
F2652612.0
sg31
g32
sg33
g48
sg34
I5
sg35
g36
sg37
g49
ssS'LEFF DANIEL P'
p165
(dp166
g3
F2822.0
sg4
F0.0
sg5
g6
sg7
F0.2222222222222222
sg8
F0.0
sg9
I00
sg10
F1387399.0
sg11
S'dan.leff@enron.com'
p167
sg13
F67.0
sg14
g15
sg16
F0.0
sg17
g18
sg19
F2672.0
sg20
F0.0
sg21
F63.0
sg22
F3083.0
sg23
F0.0
sg24
F4.785714285714286
sg25
F1000000.0
sg26
F360528.0
sg27
F14.0
sg28
F360528.0
sg29
F273746.0
sg30
F2664228.0
sg31
g32
sg33
F0.9468462083628633
sg34
I4
sg35
g36
sg37
F0.02374202693125443
ssS'LAVORATO JOHN J'
p168
(dp169
g3
F7259.0
sg4
F0.0
sg5
g6
sg7
F0.15899419729206962
sg8
F49537.0
sg9
I00
sg10
F2035380.0
sg11
S'john.lavorato@enron.com'
p170
sg13
F528.0
sg14
g15
sg16
F0.0
sg17
g18
sg19
F3962.0
sg20
F0.0
sg21
F2585.0
sg22
F1552.0
sg23
F0.0
sg24
F1.2846715328467153
sg25
F8000000.0
sg26
F5167144.0
sg27
F411.0
sg28
F1008149.0
sg29
F339288.0
sg30
F10425757.0
sg31
g32
sg33
F0.5458052073288332
sg34
I5
sg35
F4158995.0
sg37
F0.07273729163796666
ssS'BERBERIAN DAVID'
p171
(dp172
g3
g40
sg4
F0.0
sg5
g6
sg7
g41
sg8
F11892.0
sg9
I00
sg10
F0.0
sg11
S'david.berberian@enron.com'
p173
sg13
g43
sg14
g15
sg16
F0.0
sg17
g18
sg19
g44
sg20
F0.0
sg21
g45
sg22
F0.0
sg23
F0.0
sg24
g46
sg25
F0.0
sg26
F2493616.0
sg27
g47
sg28
F869220.0
sg29
F216582.0
sg30
F228474.0
sg31
g32
sg33
g48
sg34
I2
sg35
F1624396.0
sg37
g49
ssS'DETMERING TIMOTHY J'
p174
(dp175
g3
g40
sg4
F875307.0
sg5
F329276.0
sg7
g41
sg8
F52255.0
sg9
I00
sg10
F415657.0
sg11
S'timothy.detmering@enron.com'
p176
sg13
g43
sg14
F6.158556955259417
sg16
F-775241.0
sg17
F-315068.0
sg19
g44
sg20
F0.0
sg21
g45
sg22
F1105.0
sg23
F0.0
sg24
g46
sg25
F425000.0
sg26
F2027865.0
sg27
g47
sg28
F315068.0
sg29
F210500.0
sg30
F1204583.0
sg31
F0.6392813323777014
sg33
g48
sg34
I7
sg35
F2027865.0
sg37
g49
ssS'WAKEHAM JOHN'
p177
(dp178
g3
g40
sg4
F0.0
sg5
g6
sg7
g41
sg8
F103773.0
sg9
I00
sg10
F0.0
sg11
g42
sg13
g43
sg14
g15
sg16
F0.0
sg17
g18
sg19
g44
sg20
F0.0
sg21
g45
sg22
F0.0
sg23
F109298.0
sg24
g46
sg25
F0.0
sg26
g82
sg27
g47
sg28
g78
sg29
F0.0
sg30
F213071.0
sg31
g32
sg33
g48
sg34
I2
sg35
g36
sg37
g49
ssS'POWERS WILLIAM'
p179
(dp180
g3
F653.0
sg4
F0.0
sg5
g6
sg7
F0.0
sg8
F0.0
sg9
I00
sg10
F0.0
sg11
S'ken.powers@enron.com'
p181
sg13
F0.0
sg14
g15
sg16
F-17500.0
sg17
g18
sg19
F12.0
sg20
F0.0
sg21
F26.0
sg22
F0.0
sg23
F17500.0
sg24
g46
sg25
F0.0
sg26
g82
sg27
F0.0
sg28
g78
sg29
F0.0
sg30
g56
sg31
g32
sg33
F0.018376722817764167
sg34
I2
sg35
g36
sg37
F0.0
ssS'GOLD JOSEPH'
p182
(dp183
g3
g40
sg4
F0.0
sg5
g6
sg7
g41
sg8
F0.0
sg9
I00
sg10
F304805.0
sg11
S'joe.gold@enron.com'
p184
sg13
g43
sg14
g15
sg16
F0.0
sg17
g18
sg19
g44
sg20
F0.0
sg21
g45
sg22
F819288.0
sg23
F0.0
sg24
g46
sg25
F750000.0
sg26
F877611.0
sg27
g47
sg28
F441096.0
sg29
F272880.0
sg30
F2146973.0
sg31
g32
sg33
g48
sg34
I4
sg35
F436515.0
sg37
g49
ssS'BANNANTINE JAMES M'
p185
(dp186
g3
F566.0
sg4
F0.0
sg5
g6
sg7
F0.0
sg8
F56301.0
sg9
I00
sg10
F0.0
sg11
S'james.bannantine@enron.com'
p187
sg13
F39.0
sg14
g15
sg16
F-5104.0
sg17
F-560222.0
sg19
F465.0
sg20
F0.0
sg21
F29.0
sg22
F864523.0
sg23
F0.0
sg24
g46
sg25
F0.0
sg26
F5243487.0
sg27
F0.0
sg28
F1757552.0
sg29
F477.0
sg30
F916197.0
sg31
g32
sg33
F0.8215547703180212
sg34
I4
sg35
F4046157.0
sg37
F0.06890459363957598
ssS'DUNCAN JOHN H'
p188
(dp189
g3
g40
sg4
F0.0
sg5
g6
sg7
g41
sg8
F0.0
sg9
I00
sg10
F0.0
sg11
g42
sg13
g43
sg14
g15
sg16
F-25000.0
sg17
g18
sg19
g44
sg20
F0.0
sg21
g45
sg22
F0.0
sg23
F102492.0
sg24
g46
sg25
F0.0
sg26
F371750.0
sg27
g47
sg28
g78
sg29
F0.0
sg30
F77492.0
sg31
g32
sg33
g48
sg34
I2
sg35
F371750.0
sg37
g49
ssS'SHAPIRO RICHARD S'
p190
(dp191
g3
F15149.0
sg4
F0.0
sg5
g6
sg7
F0.053497942386831275
sg8
F137767.0
sg9
I00
sg10
F0.0
sg11
S'richard.shapiro@enron.com'
p192
sg13
F74.0
sg14
g15
sg16
F0.0
sg17
g18
sg19
F4527.0
sg20
F0.0
sg21
F1215.0
sg22
F705.0
sg23
F0.0
sg24
F1.1384615384615384
sg25
F650000.0
sg26
F987001.0
sg27
F65.0
sg28
F379164.0
sg29
F269076.0
sg30
F1057548.0
sg31
g32
sg33
F0.29883160604660375
sg34
I4
sg35
F607837.0
sg37
F0.0048848108786058485
ssS'SHERRIFF JOHN R'
p193
(dp194
g3
F3187.0
sg4
F0.0
sg5
g6
sg7
F0.25
sg8
F0.0
sg9
I00
sg10
F554422.0
sg11
S'john.sherriff@enron.com'
p195
sg13
F28.0
sg14
g15
sg16
F0.0
sg17
g18
sg19
F2103.0
sg20
F0.0
sg21
F92.0
sg22
F1852186.0
sg23
F0.0
sg24
F1.2173913043478262
sg25
F1500000.0
sg26
F3128982.0
sg27
F23.0
sg28
F1293424.0
sg29
F428780.0
sg30
F4335388.0
sg31
g32
sg33
F0.6598682146219015
sg34
I4
sg35
F1835558.0
sg37
F0.008785691873235017
ssS'SHELBY REX'
p196
(dp197
g3
F225.0
sg4
F0.0
sg5
g6
sg7
F0.358974358974359
sg8
F22884.0
sg9
I01
sg10
F0.0
sg11
S'rex.shelby@enron.com'
p198
sg13
F13.0
sg14
g15
sg16
F-4167.0
sg17
g18
sg19
F91.0
sg20
F0.0
sg21
F39.0
sg22
F1573324.0
sg23
F0.0
sg24
F0.9285714285714286
sg25
F200000.0
sg26
F2493616.0
sg27
F14.0
sg28
F869220.0
sg29
F211844.0
sg30
F2003885.0
sg31
g32
sg33
F0.40444444444444444
sg34
I5
sg35
F1624396.0
sg37
F0.057777777777777775
ssS'LEMAISTRE CHARLES'
p199
(dp200
g3
g40
sg4
F0.0
sg5
g6
sg7
g41
sg8
F0.0
sg9
I00
sg10
F0.0
sg11
g42
sg13
g43
sg14
g15
sg16
F-25000.0
sg17
g18
sg19
g44
sg20
F0.0
sg21
g45
sg22
F0.0
sg23
F112492.0
sg24
g46
sg25
F0.0
sg26
F412878.0
sg27
g47
sg28
g78
sg29
F0.0
sg30
F87492.0
sg31
g32
sg33
g48
sg34
I2
sg35
F412878.0
sg37
g49
ssS'DEFFNER JOSEPH M'
p201
(dp202
g3
F714.0
sg4
F0.0
sg5
g6
sg7
F0.05405405405405406
sg8
F41626.0
sg9
I00
sg10
F335349.0
sg11
S'joseph.deffner@enron.com'
p203
sg13
F115.0
sg14
g15
sg16
F0.0
sg17
g18
sg19
F552.0
sg20
F0.0
sg21
F74.0
sg22
F25553.0
sg23
F0.0
sg24
F28.75
sg25
F600000.0
sg26
F159211.0
sg27
F4.0
sg28
F141833.0
sg29
F206121.0
sg30
F1208649.0
sg31
g32
sg33
F0.773109243697479
sg34
I5
sg35
F17378.0
sg37
F0.16106442577030813
ssS'KISHKILL JOSEPH G'
p204
(dp205
g3
g40
sg4
F0.0
sg5
g6
sg7
g41
sg8
F116335.0
sg9
I00
sg10
F0.0
sg11
S'joe.kishkill@enron.com'
p206
sg13
g43
sg14
g15
sg16
F-51042.0
sg17
g18
sg19
g44
sg20
F0.0
sg21
g45
sg22
F465357.0
sg23
F0.0
sg24
g46
sg25
F0.0
sg26
F1034346.0
sg27
g47
sg28
F1034346.0
sg29
F174246.0
sg30
F704896.0
sg31
g32
sg33
g48
sg34
I4
sg35
g36
sg37
g49
ssS'WHALLEY LAWRENCE G'
p207
(dp208
g3
F6019.0
sg4
F0.0
sg5
g6
sg7
F0.04316546762589928
sg8
F57838.0
sg9
I00
sg10
F808346.0
sg11
S'greg.whalley@enron.com'
p209
sg13
F186.0
sg14
g15
sg16
F0.0
sg17
g18
sg19
F3920.0
sg20
F0.0
sg21
F556.0
sg22
F301026.0
sg23
F0.0
sg24
F7.75
sg25
F3000000.0
sg26
F6079137.0
sg27
F24.0
sg28
F2796177.0
sg29
F510364.0
sg30
F4677574.0
sg31
g32
sg33
F0.6512709752450573
sg34
I5
sg35
F3282960.0
sg37
F0.03090214321315833
ssS'MCCARTY DANNY J'
p210
(dp211
g3
F1433.0
sg4
F0.0
sg5
g6
sg7
F0.009302325581395349
sg8
F0.0
sg9
I00
sg10
F0.0
sg11
S'danny.mccarty@enron.com'
p212
sg13
F25.0
sg14
g15
sg16
F0.0
sg17
g18
sg19
F508.0
sg20
F0.0
sg21
F215.0
sg22
F0.0
sg23
F0.0
sg24
F12.5
sg25
F0.0
sg26
F758931.0
sg27
F2.0
sg28
F94556.0
sg29
F0.0
sg30
g56
sg31
g32
sg33
F0.35450104675505933
sg34
I0
sg35
F664375.0
sg37
F0.017445917655268667
ssS'MCCONNELL MICHAEL S'
p213
(dp214
g3
F3329.0
sg4
F0.0
sg5
g6
sg7
F0.07075127644055434
sg8
F81364.0
sg9
I00
sg10
F554422.0
sg11
S'mike.mcconnell@enron.com'
p215
sg13
F92.0
sg14
g15
sg16
F0.0
sg17
g18
sg19
F2189.0
sg20
F0.0
sg21
F2742.0
sg22
F540.0
sg23
F0.0
sg24
F0.4742268041237113
sg25
F1100000.0
sg26
F3101279.0
sg27
F194.0
sg28
F1478269.0
sg29
F365038.0
sg30
F2101364.0
sg31
g32
sg33
F0.657554821267648
sg34
I5
sg35
F1623010.0
sg37
F0.02763592670471613
ssS'DELAINEY DAVID W'
p216
(dp217
g3
F3093.0
sg4
F0.0
sg5
g6
sg7
F0.198435972629521
sg8
F86174.0
sg9
I01
sg10
F1294981.0
sg11
S'david.delainey@enron.com'
p218
sg13
F66.0
sg14
g15
sg16
F0.0
sg17
g18
sg19
F2097.0
sg20
F0.0
sg21
F3069.0
sg22
F1661.0
sg23
F0.0
sg24
F0.10837438423645321
sg25
F3000000.0
sg26
F3614261.0
sg27
F609.0
sg28
F1323148.0
sg29
F365163.0
sg30
F4747979.0
sg31
g32
sg33
F0.6779825412221144
sg34
I5
sg35
F2291113.0
sg37
F0.02133850630455868
ssS'SULLIVAN-SHAKLOVITZ COLLEEN'
p219
(dp220
g3
g40
sg4
F181993.0
sg5
F817363.0
sg7
g41
sg8
F0.0
sg9
I00
sg10
F554422.0
sg11
g42
sg13
g43
sg14
F1.6667930894841092
sg16
F0.0
sg17
g18
sg19
g44
sg20
F0.0
sg21
g45
sg22
F162.0
sg23
F0.0
sg24
g46
sg25
F100000.0
sg26
F1362375.0
sg27
g47
sg28
g78
sg29
F162779.0
sg30
F999356.0
sg31
F0.19915141742408207
sg33
g48
sg34
I5
sg35
F1362375.0
sg37
g49
ssS'WROBEL BRUCE'
p221
(dp222
g3
g40
sg4
F0.0
sg5
g6
sg7
g41
sg8
F0.0
sg9
I00
sg10
F0.0
sg11
g42
sg13
g43
sg14
g15
sg16
F0.0
sg17
g18
sg19
g44
sg20
F0.0
sg21
g45
sg22
F0.0
sg23
F0.0
sg24
g46
sg25
F0.0
sg26
F139130.0
sg27
g47
sg28
g78
sg29
F0.0
sg30
g56
sg31
g32
sg33
g48
sg34
I0
sg35
F139130.0
sg37
g49
ssS'LINDHOLM TOD A'
p223
(dp224
g3
g40
sg4
F204075.0
sg5
F671814.0
sg7
g41
sg8
F57727.0
sg9
I00
sg10
F175000.0
sg11
S'tod.lindholm@enron.com'
p225
sg13
g43
sg14
F4.5610957794865845
sg16
F0.0
sg17
g18
sg19
g44
sg20
F0.0
sg21
g45
sg22
F2630.0
sg23
F0.0
sg24
g46
sg25
F200000.0
sg26
F3064208.0
sg27
g47
sg28
F514847.0
sg29
F236457.0
sg30
F875889.0
sg31
F0.35196795541623127
sg33
g48
sg34
I6
sg35
F2549361.0
sg37
g49
ssS'MEYER JEROME J'
p226
(dp227
g3
g40
sg4
F0.0
sg5
g6
sg7
g41
sg8
F2151.0
sg9
I00
sg10
F0.0
sg11
g42
sg13
g43
sg14
g15
sg16
F-38346.0
sg17
g18
sg19
g44
sg20
F0.0
sg21
g45
sg22
F0.0
sg23
F38346.0
sg24
g46
sg25
F0.0
sg26
g82
sg27
g47
sg28
g78
sg29
F0.0
sg30
F2151.0
sg31
g32
sg33
g48
sg34
I3
sg35
g36
sg37
g49
ssS'LAY KENNETH L'
p228
(dp229
g3
F4273.0
sg4
F202911.0
sg5
F103356882.0
sg7
F0.4444444444444444
sg8
F99832.0
sg9
I01
sg10
F3600000.0
sg11
S'kenneth.lay@enron.com'
p230
sg13
F123.0
sg14
F0.4751505371456542
sg16
F-300000.0
sg17
g18
sg19
F2411.0
sg20
F81525000.0
sg21
F36.0
sg22
F10359729.0
sg23
F0.0
sg24
F7.6875
sg25
F7000000.0
sg26
F49110078.0
sg27
F16.0
sg28
F14761694.0
sg29
F1072321.0
sg30
F103559793.0
sg31
F0.010374935652567382
sg33
F0.5642405803884858
sg34
I8
sg35
F34348384.0
sg37
F0.028785396676807865
ssS'BUTTS ROBERT H'
p231
(dp232
g3
g40
sg4
F0.0
sg5
g6
sg7
g41
sg8
F9410.0
sg9
I00
sg10
F175000.0
sg11
S'bob.butts@enron.com'
p233
sg13
g43
sg14
g15
sg16
F-75000.0
sg17
g18
sg19
g44
sg20
F0.0
sg21
g45
sg22
F150656.0
sg23
F0.0
sg24
g46
sg25
F750000.0
sg26
F417619.0
sg27
g47
sg28
F417619.0
sg29
F261516.0
sg30
F1271582.0
sg31
g32
sg33
g48
sg34
I6
sg35
g36
sg37
g49
ssS'OLSON CINDY K'
p234
(dp235
g3
F1184.0
sg4
F77716.0
sg5
F1243841.0
sg7
F0.28846153846153844
sg8
F63791.0
sg9
I00
sg10
F100000.0
sg11
S'cindy.olson@enron.com'
p236
sg13
F20.0
sg14
F2.0957365129465906
sg16
F0.0
sg17
g18
sg19
F856.0
sg20
F0.0
sg21
F52.0
sg22
F972.0
sg23
F0.0
sg24
F1.3333333333333333
sg25
F750000.0
sg26
F2606763.0
sg27
F15.0
sg28
F969729.0
sg29
F329078.0
sg30
F1321557.0
sg31
F0.26456596944464766
sg33
F0.722972972972973
sg34
I6
sg35
F1637034.0
sg37
F0.016891891891891893
ssS'MCDONALD REBECCA'
p237
(dp238
g3
F894.0
sg4
F0.0
sg5
g6
sg7
F0.07692307692307693
sg8
F0.0
sg9
I00
sg10
F0.0
sg11
S'rebecca.mcdonald@enron.com'
p239
sg13
F54.0
sg14
g15
sg16
F0.0
sg17
g18
sg19
F720.0
sg20
F0.0
sg21
F13.0
sg22
F0.0
sg23
F0.0
sg24
F54.0
sg25
F0.0
sg26
F1691366.0
sg27
F1.0
sg28
F934065.0
sg29
F0.0
sg30
g56
sg31
g32
sg33
F0.8053691275167785
sg34
I0
sg35
F757301.0
sg37
F0.06040268456375839
ssS'CUMBERLAND MICHAEL S'
p240
(dp241
g3
g40
sg4
F0.0
sg5
g6
sg7
g41
sg8
F22344.0
sg9
I00
sg10
F275000.0
sg11
g42
sg13
g43
sg14
g15
sg16
F0.0
sg17
g18
sg19
g44
sg20
F0.0
sg21
g45
sg22
F713.0
sg23
F0.0
sg24
g46
sg25
F325000.0
sg26
F207940.0
sg27
g47
sg28
F207940.0
sg29
F184899.0
sg30
F807956.0
sg31
g32
sg33
g48
sg34
I5
sg35
g36
sg37
g49
ssS'GAHN ROBERT S'
p242
(dp243
g3
g40
sg4
F73122.0
sg5
F827463.0
sg7
g41
sg8
F50080.0
sg9
I00
sg10
F0.0
sg11
g42
sg13
g43
sg14
F0.38504078127964636
sg16
F-1042.0
sg17
g18
sg19
g44
sg20
F0.0
sg21
g45
sg22
F76547.0
sg23
F0.0
sg24
g46
sg25
F509870.0
sg26
F318607.0
sg27
g47
sg28
F235370.0
sg29
F192008.0
sg30
F900585.0
sg31
F0.2320442122487652
sg33
g48
sg34
I6
sg35
F83237.0
sg37
g49
ssS'MCCLELLAN GEORGE'
p244
(dp245
g3
F1744.0
sg4
F0.0
sg5
g6
sg7
F0.0
sg8
F228763.0
sg9
I00
sg10
F0.0
sg11
S'george.mcclellan@enron.com'
p246
sg13
F52.0
sg14
g15
sg16
F-125000.0
sg17
g18
sg19
F1469.0
sg20
F0.0
sg21
F49.0
sg22
F51587.0
sg23
F0.0
sg24
g46
sg25
F900000.0
sg26
F947861.0
sg27
F0.0
sg28
F441096.0
sg29
F263413.0
sg30
F1318763.0
sg31
g32
sg33
F0.8423165137614679
sg34
I5
sg35
F506765.0
sg37
F0.02981651376146789
ssS'HERMANN ROBERT J'
p247
(dp248
g3
g40
sg4
F0.0
sg5
g6
sg7
g41
sg8
F48357.0
sg9
I00
sg10
F150000.0
sg11
S'robert.hermann@enron.com'
p249
sg13
g43
sg14
g15
sg16
F-280000.0
sg17
g18
sg19
g44
sg20
F0.0
sg21
g45
sg22
F416441.0
sg23
F0.0
sg24
g46
sg25
F700000.0
sg26
F668132.0
sg27
g47
sg28
F480632.0
sg29
F262663.0
sg30
F1297461.0
sg31
g32
sg33
g48
sg34
I6
sg35
F187500.0
sg37
g49
ssS'SCRIMSHAW MATTHEW'
p250
(dp251
g3
g40
sg4
F0.0
sg5
g6
sg7
g41
sg8
F0.0
sg9
I00
sg10
F0.0
sg11
S'matthew.scrimshaw@enron.com'
p252
sg13
g43
sg14
g15
sg16
F0.0
sg17
g18
sg19
g44
sg20
F0.0
sg21
g45
sg22
F0.0
sg23
F0.0
sg24
g46
sg25
F0.0
sg26
F759557.0
sg27
g47
sg28
g78
sg29
F0.0
sg30
g56
sg31
g32
sg33
g48
sg34
I0
sg35
F759557.0
sg37
g49
ssS'GATHMANN WILLIAM D'
p253
(dp254
g3
g40
sg4
F0.0
sg5
g6
sg7
g41
sg8
F0.0
sg9
I00
sg10
F0.0
sg11
g42
sg13
g43
sg14
g15
sg16
F0.0
sg17
F-72419.0
sg19
g44
sg20
F0.0
sg21
g45
sg22
F0.0
sg23
F0.0
sg24
g46
sg25
F0.0
sg26
F1945360.0
sg27
g47
sg28
F264013.0
sg29
F0.0
sg30
g56
sg31
g32
sg33
g48
sg34
I0
sg35
F1753766.0
sg37
g49
ssS'HAEDICKE MARK E'
p255
(dp256
g3
F4009.0
sg4
F2157527.0
sg5
F1701538.0
sg7
F0.03142709943328181
sg8
F76169.0
sg9
I00
sg10
F983346.0
sg11
S'mark.haedicke@enron.com'
p257
sg13
F180.0
sg14
F0.4719812310979831
sg16
F-934484.0
sg17
F-329825.0
sg19
F1847.0
sg20
F0.0
sg21
F1941.0
sg22
F52382.0
sg23
F0.0
sg24
F2.9508196721311477
sg25
F1150000.0
sg26
F803094.0
sg27
F61.0
sg28
F524169.0
sg29
F374125.0
sg30
F3859065.0
sg31
F0.2198746075609243
sg33
F0.4607133948615615
sg34
I7
sg35
F608750.0
sg37
F0.04489897730107259
ssS'BOWEN JR RAYMOND M'
p258
(dp259
g3
F1858.0
sg4
F0.0
sg5
g6
sg7
F0.5555555555555556
sg8
F65907.0
sg9
I01
sg10
F974293.0
sg11
S'raymond.bowen@enron.com'
p260
sg13
F140.0
sg14
g15
sg16
F-833.0
sg17
g18
sg19
F1593.0
sg20
F0.0
sg21
F27.0
sg22
F1621.0
sg23
F0.0
sg24
F9.333333333333334
sg25
F1350000.0
sg26
F252055.0
sg27
F15.0
sg28
F252055.0
sg29
F278601.0
sg30
F2669589.0
sg31
g32
sg33
F0.8573735199138859
sg34
I6
sg35
g36
sg37
F0.07534983853606028
ssS'GILLIS JOHN'
p261
(dp262
g3
g40
sg4
F0.0
sg5
g6
sg7
g41
sg8
F0.0
sg9
I00
sg10
F0.0
sg11
g42
sg13
g43
sg14
g15
sg16
F0.0
sg17
g18
sg19
g44
sg20
F0.0
sg21
g45
sg22
F0.0
sg23
F0.0
sg24
g46
sg25
F0.0
sg26
F85641.0
sg27
g47
sg28
F75838.0
sg29
F0.0
sg30
g56
sg31
g32
sg33
g48
sg34
I0
sg35
F9803.0
sg37
g49
ssS'FITZGERALD JAY L'
p263
(dp264
g3
F936.0
sg4
F0.0
sg5
g6
sg7
F0.5
sg8
F23870.0
sg9
I00
sg10
F556416.0
sg11
S'jay.fitzgerald@enron.com'
p265
sg13
F1.0
sg14
g15
sg16
F0.0
sg17
g18
sg19
F723.0
sg20
F0.0
sg21
F16.0
sg22
F285414.0
sg23
F0.0
sg24
F0.125
sg25
F350000.0
sg26
F1621236.0
sg27
F8.0
sg28
F956775.0
sg29
F199157.0
sg30
F1414857.0
sg31
g32
sg33
F0.7724358974358975
sg34
I5
sg35
F664461.0
sg37
F0.0010683760683760685
ssS'MORAN MICHAEL P'
p266
(dp267
g3
F672.0
sg4
F0.0
sg5
g6
sg7
F0.0
sg8
F0.0
sg9
I00
sg10
F0.0
sg11
S'michael.moran@enron.com'
p268
sg13
F0.0
sg14
g15
sg16
F0.0
sg17
g18
sg19
F127.0
sg20
F0.0
sg21
F19.0
sg22
F0.0
sg23
F0.0
sg24
g46
sg25
F0.0
sg26
F221141.0
sg27
F0.0
sg28
F161602.0
sg29
F0.0
sg30
g56
sg31
g32
sg33
F0.18898809523809523
sg34
I0
sg35
F59539.0
sg37
F0.0
ssS'REDMOND BRIAN L'
p269
(dp270
g3
F1671.0
sg4
F0.0
sg5
g6
sg7
F0.22171945701357465
sg8
F14689.0
sg9
I00
sg10
F0.0
sg11
S'brian.redmond@enron.com'
p271
sg13
F204.0
sg14
g15
sg16
F0.0
sg17
g18
sg19
F1063.0
sg20
F0.0
sg21
F221.0
sg22
F0.0
sg23
F0.0
sg24
F4.163265306122449
sg25
F0.0
sg26
F7890324.0
sg27
F49.0
sg28
F381285.0
sg29
F96840.0
sg30
F111529.0
sg31
g32
sg33
F0.6361460203470976
sg34
I2
sg35
F7509039.0
sg37
F0.12208258527827648
ssS'BAZELIDES PHILIP J'
p272
(dp273
g3
g40
sg4
F684694.0
sg5
F175442.0
sg7
g41
sg8
F0.0
sg9
I00
sg10
F93750.0
sg11
g42
sg13
g43
sg14
F9.117776815129787
sg16
F0.0
sg17
g18
sg19
g44
sg20
F0.0
sg21
g45
sg22
F874.0
sg23
F0.0
sg24
g46
sg25
F0.0
sg26
F1599641.0
sg27
g47
sg28
g78
sg29
F80818.0
sg30
F860136.0
sg31
F0.4606536633189316
sg33
g48
sg34
I4
sg35
F1599641.0
sg37
g49
ssS'BELDEN TIMOTHY N'
p274
(dp275
g3
F7991.0
sg4
F2144013.0
sg5
F3357617.0
sg7
F0.2231404958677686
sg8
F17355.0
sg9
I01
sg10
F0.0
sg11
S'tim.belden@enron.com'
p276
sg13
F228.0
sg14
F0.33080157742827726
sg16
F-2334434.0
sg17
g18
sg19
F5521.0
sg20
F0.0
sg21
F484.0
sg22
F210698.0
sg23
F0.0
sg24
F2.111111111111111
sg25
F5249999.0
sg26
F1110705.0
sg27
F108.0
sg28
F157569.0
sg29
F213999.0
sg30
F5501630.0
sg31
F0.0637353813731584
sg33
F0.6909022650481792
sg34
I6
sg35
F953136.0
sg37
F0.028532098610937303
ssS'DURAN WILLIAM D'
p277
(dp278
g3
F904.0
sg4
F0.0
sg5
g6
sg7
F0.25
sg8
F25785.0
sg9
I00
sg10
F1105218.0
sg11
S'w.duran@enron.com'
p279
sg13
F106.0
sg14
g15
sg16
F0.0
sg17
g18
sg19
F599.0
sg20
F0.0
sg21
F12.0
sg22
F1568.0
sg23
F0.0
sg24
F35.333333333333336
sg25
F750000.0
sg26
F1640910.0
sg27
F3.0
sg28
F189041.0
sg29
F210692.0
sg30
F2093263.0
sg31
g32
sg33
F0.6626106194690266
sg34
I5
sg35
F1451869.0
sg37
F0.1172566371681416
ssS'THORN TERENCE H'
p280
(dp281
g3
F266.0
sg4
F16586.0
sg5
F894867.0
sg7
F0.0
sg8
F46145.0
sg9
I00
sg10
F200000.0
sg11
S'terence.thorn@enron.com'
p282
sg13
F0.0
sg14
F5.383812343063271
sg16
F0.0
sg17
g18
sg19
F73.0
sg20
F0.0
sg21
F41.0
sg22
F426629.0
sg23
F0.0
sg24
g46
sg25
F0.0
sg26
F4817796.0
sg27
F0.0
sg28
F365320.0
sg29
F222093.0
sg30
F911453.0
sg31
F0.24818548454686562
sg33
F0.2744360902255639
sg34
I5
sg35
F4452476.0
sg37
F0.0
ssS'FASTOW ANDREW S'
p283
(dp284
g3
g40
sg4
F0.0
sg5
g6
sg7
g41
sg8
F55921.0
sg9
I01
sg10
F1736055.0
sg11
S'andrew.fastow@enron.com'
p285
sg13
g43
sg14
g15
sg16
F-1386055.0
sg17
g18
sg19
g44
sg20
F0.0
sg21
g45
sg22
F277464.0
sg23
F0.0
sg24
g46
sg25
F1300000.0
sg26
F1794412.0
sg27
g47
sg28
F1794412.0
sg29
F440698.0
sg30
F2424083.0
sg31
g32
sg33
g48
sg34
I6
sg35
g36
sg37
g49
ssS'FOY JOE'
p286
(dp287
g3
F57.0
sg4
F181755.0
sg5
F0.0
sg7
F0.0
sg8
F0.0
sg9
I00
sg10
F0.0
sg11
S'tracy.foy@enron.com'
p288
sg13
F0.0
sg14
g15
sg16
F0.0
sg17
g18
sg19
F2.0
sg20
F0.0
sg21
F13.0
sg22
F0.0
sg23
F0.0
sg24
g46
sg25
F0.0
sg26
F343434.0
sg27
F0.0
sg28
g78
sg29
F0.0
sg30
F181755.0
sg31
g32
sg33
F0.03508771929824561
sg34
I1
sg35
F343434.0
sg37
F0.0
ssS'CALGER CHRISTOPHER F'
p289
(dp290
g3
F2598.0
sg4
F0.0
sg5
g6
sg7
F0.1736111111111111
sg8
F35818.0
sg9
I01
sg10
F375304.0
sg11
S'christopher.calger@enron.com'
p291
sg13
F199.0
sg14
g15
sg16
F-262500.0
sg17
g18
sg19
F2188.0
sg20
F0.0
sg21
F144.0
sg22
F486.0
sg23
F0.0
sg24
F7.96
sg25
F1250000.0
sg26
F126027.0
sg27
F25.0
sg28
F126027.0
sg29
F240189.0
sg30
F1639297.0
sg31
g32
sg33
F0.8421862971516552
sg34
I6
sg35
g36
sg37
F0.07659738260200154
ssS'RICE KENNETH D'
p292
(dp293
g3
F905.0
sg4
F0.0
sg5
g6
sg7
F0.2222222222222222
sg8
F46950.0
sg9
I01
sg10
F1617011.0
sg11
S'ken.rice@enron.com'
p294
sg13
F42.0
sg14
g15
sg16
F-3504386.0
sg17
g18
sg19
F864.0
sg20
F0.0
sg21
F18.0
sg22
F174839.0
sg23
F0.0
sg24
F10.5
sg25
F1750000.0
sg26
F22542539.0
sg27
F4.0
sg28
F2748364.0
sg29
F420636.0
sg30
F505050.0
sg31
g32
sg33
F0.9546961325966851
sg34
I6
sg35
F19794175.0
sg37
F0.04640883977900553
ssS'KAMINSKI WINCENTY J'
p295
(dp296
g3
F4607.0
sg4
F0.0
sg5
g6
sg7
F0.011901447661469933
sg8
F83585.0
sg9
I00
sg10
F323466.0
sg11
S'vince.kaminski@enron.com'
p297
sg13
F41.0
sg14
g15
sg16
F0.0
sg17
g18
sg19
F583.0
sg20
F0.0
sg21
F14368.0
sg22
F4669.0
sg23
F0.0
sg24
F0.23976608187134502
sg25
F400000.0
sg26
F976037.0
sg27
F171.0
sg28
F126027.0
sg29
F275101.0
sg30
F1086821.0
sg31
g32
sg33
F0.1265465595832429
sg34
I5
sg35
F850010.0
sg37
F0.008899500759713479
ssS'LOCKHART EUGENE E'
p298
(dp299
g3
g40
sg4
F0.0
sg5
g6
sg7
g41
sg8
F0.0
sg9
I00
sg10
F0.0
sg11
g42
sg13
g43
sg14
g15
sg16
F0.0
sg17
g18
sg19
g44
sg20
F0.0
sg21
g45
sg22
F0.0
sg23
F0.0
sg24
g46
sg25
F0.0
sg26
g82
sg27
g47
sg28
g78
sg29
F0.0
sg30
g56
sg31
g32
sg33
g48
sg34
I0
sg35
g36
sg37
g49
ssS'COX DAVID'
p300
(dp301
g3
F102.0
sg4
F0.0
sg5
g6
sg7
F0.12121212121212122
sg8
F27861.0
sg9
I00
sg10
F0.0
sg11
S'chip.cox@enron.com'
p302
sg13
F0.0
sg14
g15
sg16
F-41250.0
sg17
g18
sg19
F71.0
sg20
F0.0
sg21
F33.0
sg22
F494.0
sg23
F0.0
sg24
F0.0
sg25
F800000.0
sg26
F495633.0
sg27
F4.0
sg28
F378082.0
sg29
F314288.0
sg30
F1101393.0
sg31
g32
sg33
F0.696078431372549
sg34
I5
sg35
F117551.0
sg37
F0.0
ssS'OVERDYKE JR JERE C'
p303
(dp304
g3
g40
sg4
F0.0
sg5
g6
sg7
g41
sg8
F18834.0
sg9
I00
sg10
F135836.0
sg11
S'jere.overdyke@enron.com'
p305
sg13
g43
sg14
g15
sg16
F0.0
sg17
g18
sg19
g44
sg20
F0.0
sg21
g45
sg22
F176.0
sg23
F0.0
sg24
g46
sg25
F0.0
sg26
F7307594.0
sg27
g47
sg28
F2041016.0
sg29
F94941.0
sg30
F249787.0
sg31
g32
sg33
g48
sg34
I4
sg35
F5266578.0
sg37
g49
ssS'PEREIRA PAULO V. FERRAZ'
p306
(dp307
g3
g40
sg4
F0.0
sg5
g6
sg7
g41
sg8
F27942.0
sg9
I00
sg10
F0.0
sg11
g42
sg13
g43
sg14
g15
sg16
F-101250.0
sg17
g18
sg19
g44
sg20
F0.0
sg21
g45
sg22
F0.0
sg23
F101250.0
sg24
g46
sg25
F0.0
sg26
g82
sg27
g47
sg28
g78
sg29
F0.0
sg30
F27942.0
sg31
g32
sg33
g48
sg34
I3
sg35
g36
sg37
g49
ssS'STABLER FRANK'
p308
(dp309
g3
g40
sg4
F0.0
sg5
g6
sg7
g41
sg8
F16514.0
sg9
I00
sg10
F0.0
sg11
S'frank.stabler@enron.com'
p310
sg13
g43
sg14
g15
sg16
F0.0
sg17
g18
sg19
g44
sg20
F0.0
sg21
g45
sg22
F356071.0
sg23
F0.0
sg24
g46
sg25
F500000.0
sg26
F511734.0
sg27
g47
sg28
F511734.0
sg29
F239502.0
sg30
F1112087.0
sg31
g32
sg33
g48
sg34
I4
sg35
g36
sg37
g49
ssS'SKILLING JEFFREY K'
p311
(dp312
g3
F3627.0
sg4
F0.0
sg5
g6
sg7
F0.2777777777777778
sg8
F29336.0
sg9
I01
sg10
F1920000.0
sg11
S'jeff.skilling@enron.com'
p313
sg13
F88.0
sg14
g15
sg16
F0.0
sg17
g18
sg19
F2042.0
sg20
F0.0
sg21
F108.0
sg22
F22122.0
sg23
F0.0
sg24
F2.933333333333333
sg25
F5600000.0
sg26
F26093672.0
sg27
F30.0
sg28
F6843672.0
sg29
F1111258.0
sg30
F8682716.0
sg31
g32
sg33
F0.5629997242900469
sg34
I5
sg35
F19250000.0
sg37
F0.0242624758753791
ssS'BLAKE JR. NORMAN P'
p314
(dp315
g3
g40
sg4
F0.0
sg5
g6
sg7
g41
sg8
F1279.0
sg9
I00
sg10
F0.0
sg11
g42
sg13
g43
sg14
g15
sg16
F-113784.0
sg17
g18
sg19
g44
sg20
F0.0
sg21
g45
sg22
F0.0
sg23
F113784.0
sg24
g46
sg25
F0.0
sg26
g82
sg27
g47
sg28
g78
sg29
F0.0
sg30
F1279.0
sg31
g32
sg33
g48
sg34
I3
sg35
g36
sg37
g49
ssS'SHERRICK JEFFREY B'
p316
(dp317
g3
F613.0
sg4
F0.0
sg5
g6
sg7
F0.72
sg8
F0.0
sg9
I00
sg10
F0.0
sg11
S'jeffrey.sherrick@enron.com'
p318
sg13
F39.0
sg14
g15
sg16
F0.0
sg17
g18
sg19
F583.0
sg20
F0.0
sg21
F25.0
sg22
F0.0
sg23
F0.0
sg24
F2.1666666666666665
sg25
F0.0
sg26
F1832468.0
sg27
F18.0
sg28
F405999.0
sg29
F0.0
sg30
g56
sg31
g32
sg33
F0.9510603588907015
sg34
I0
sg35
F1426469.0
sg37
F0.0636215334420881
ssS'PRENTICE JAMES'
p319
(dp320
g3
g40
sg4
F564348.0
sg5
F0.0
sg7
g41
sg8
F0.0
sg9
I00
sg10
F0.0
sg11
S'james.prentice@enron.com'
p321
sg13
g43
sg14
g15
sg16
F0.0
sg17
g18
sg19
g44
sg20
F0.0
sg21
g45
sg22
F0.0
sg23
F0.0
sg24
g46
sg25
F0.0
sg26
F1095040.0
sg27
g47
sg28
F208809.0
sg29
F0.0
sg30
F564348.0
sg31
g32
sg33
g48
sg34
I1
sg35
F886231.0
sg37
g49
ssS'GRAY RODNEY'
p322
(dp323
g3
g40
sg4
F93585.0
sg5
F1053073.0
sg7
g41
sg8
F0.0
sg9
I00
sg10
F365625.0
sg11
g42
sg13
g43
sg14
g15
sg16
F0.0
sg17
g18
sg19
g44
sg20
F0.0
sg21
g45
sg22
F680833.0
sg23
F0.0
sg24
g46
sg25
F0.0
sg26
g82
sg27
g47
sg28
g78
sg29
F6615.0
sg30
F1146658.0
sg31
F0.006281615804412419
sg33
g48
sg34
I4
sg35
g36
sg37
g49
ssS'PICKERING MARK R'
p324
(dp325
g3
F898.0
sg4
F0.0
sg5
g6
sg7
F0.0
sg8
F31653.0
sg9
I00
sg10
F0.0
sg11
S'mark.pickering@enron.com'
p326
sg13
F7.0
sg14
g15
sg16
F0.0
sg17
g18
sg19
F728.0
sg20
F400000.0
sg21
F67.0
sg22
F0.0
sg23
F0.0
sg24
g46
sg25
F300000.0
sg26
F28798.0
sg27
F0.0
sg28
g78
sg29
F655037.0
sg30
F1386690.0
sg31
g32
sg33
F0.8106904231625836
sg34
I4
sg35
F28798.0
sg37
F0.0077951002227171495
ssS'THE TRAVEL AGENCY IN THE PARK'
p327
(dp328
g3
g40
sg4
F0.0
sg5
g6
sg7
g41
sg8
F0.0
sg9
I00
sg10
F0.0
sg11
g42
sg13
g43
sg14
g15
sg16
F0.0
sg17
g18
sg19
g44
sg20
F0.0
sg21
g45
sg22
F362096.0
sg23
F0.0
sg24
g46
sg25
F0.0
sg26
g82
sg27
g47
sg28
g78
sg29
F0.0
sg30
F362096.0
sg31
g32
sg33
g48
sg34
I1
sg35
g36
sg37
g49
ssS'NOLES JAMES L'
p329
(dp330
g3
g40
sg4
F774401.0
sg5
F0.0
sg7
g41
sg8
F0.0
sg9
I00
sg10
F0.0
sg11
g42
sg13
g43
sg14
g15
sg16
F0.0
sg17
F-94556.0
sg19
g44
sg20
F0.0
sg21
g45
sg22
F0.0
sg23
F0.0
sg24
g46
sg25
F0.0
sg26
F368705.0
sg27
g47
sg28
F463261.0
sg29
F0.0
sg30
F774401.0
sg31
g32
sg33
g48
sg34
I1
sg35
g36
sg37
g49
ssS'KEAN STEVEN J'
p331
(dp332
g3
F12754.0
sg4
F0.0
sg5
g6
sg7
F0.05725699067909454
sg8
F41953.0
sg9
I00
sg10
F300000.0
sg11
S'steven.kean@enron.com'
p333
sg13
F140.0
sg14
g15
sg16
F0.0
sg17
g18
sg19
F3639.0
sg20
F0.0
sg21
F6759.0
sg22
F1231.0
sg23
F0.0
sg24
F0.36175710594315247
sg25
F1000000.0
sg26
F6153642.0
sg27
F387.0
sg28
F4131594.0
sg29
F404338.0
sg30
F1747522.0
sg31
g32
sg33
F0.2853222518425592
sg34
I5
sg35
F2022048.0
sg37
F0.010976948408342482
ssS'FOWLER PEGGY'
p334
(dp335
g3
F517.0
sg4
F0.0
sg5
g6
sg7
F0.0
sg8
F0.0
sg9
I00
sg10
F0.0
sg11
S'kulvinder.fowler@enron.com'
p336
sg13
F0.0
sg14
g15
sg16
F0.0
sg17
g18
sg19
F10.0
sg20
F0.0
sg21
F36.0
sg22
F0.0
sg23
F0.0
sg24
g46
sg25
F0.0
sg26
F1884748.0
sg27
F0.0
sg28
F560170.0
sg29
F0.0
sg30
g56
sg31
g32
sg33
F0.019342359767891684
sg34
I0
sg35
F1324578.0
sg37
F0.0
ssS'WASAFF GEORGE'
p337
(dp338
g3
F400.0
sg4
F831299.0
sg5
F203096.0
sg7
F0.23333333333333334
sg8
F0.0
sg9
I00
sg10
F200000.0
sg11
S'george.wasaff@enron.com'
p339
sg13
F22.0
sg14
F10.125393902390988
sg16
F-583325.0
sg17
g18
sg19
F337.0
sg20
F0.0
sg21
F30.0
sg22
F1425.0
sg23
F0.0
sg24
F3.142857142857143
sg25
F325000.0
sg26
F2056427.0
sg27
F7.0
sg28
F388167.0
sg29
F259996.0
sg30
F1034395.0
sg31
F1.2801630755898687
sg33
F0.8425
sg34
I6
sg35
F1668260.0
sg37
F0.055
ssS'WHITE JR THOMAS E'
p340
(dp341
g3
g40
sg4
F0.0
sg5
g6
sg7
g41
sg8
F81353.0
sg9
I00
sg10
F0.0
sg11
S'thomas.white@enron.com'
p342
sg13
g43
sg14
g15
sg16
F0.0
sg17
g18
sg19
g44
sg20
F0.0
sg21
g45
sg22
F1085463.0
sg23
F0.0
sg24
g46
sg25
F450000.0
sg26
F15144123.0
sg27
g47
sg28
F13847074.0
sg29
F317543.0
sg30
F1934359.0
sg31
g32
sg33
g48
sg34
I4
sg35
F1297049.0
sg37
g49
ssS'CHRISTODOULOU DIOMEDES'
p343
(dp344
g3
g40
sg4
F0.0
sg5
g6
sg7
g41
sg8
F0.0
sg9
I00
sg10
F0.0
sg11
S'diomedes.christodoulou@enron.com'
p345
sg13
g43
sg14
g15
sg16
F0.0
sg17
g18
sg19
g44
sg20
F0.0
sg21
g45
sg22
F0.0
sg23
F0.0
sg24
g46
sg25
F0.0
sg26
F6077885.0
sg27
g47
sg28
F950730.0
sg29
F0.0
sg30
g56
sg31
g32
sg33
g48
sg34
I0
sg35
F5127155.0
sg37
g49
ssS'ALLEN PHILLIP K'
p346
(dp347
g3
F2902.0
sg4
F2869717.0
sg5
F1614725.0
sg7
F0.029612756264236904
sg8
F13868.0
sg9
I00
sg10
F304805.0
sg11
S'phillip.allen@enron.com'
p348
sg13
F47.0
sg14
F1.071105606217777
sg16
F-3081055.0
sg17
F-126027.0
sg19
F1407.0
sg20
F0.0
sg21
F2195.0
sg22
F152.0
sg23
F0.0
sg24
F0.7230769230769231
sg25
F4175000.0
sg26
F1729541.0
sg27
F65.0
sg28
F126027.0
sg29
F201955.0
sg30
F4484442.0
sg31
F0.12507083249469725
sg33
F0.4848380427291523
sg34
I7
sg35
F1729541.0
sg37
F0.016195727084769126
ssS'SHARP VICTORIA T'
p349
(dp350
g3
F3136.0
sg4
F187469.0
sg5
F1389042.0
sg7
F0.04411764705882353
sg8
F116337.0
sg9
I00
sg10
F422158.0
sg11
S'vicki.sharp@enron.com'
p351
sg13
F24.0
sg14
F0.355738703365341
sg16
F0.0
sg17
g18
sg19
F2477.0
sg20
F0.0
sg21
F136.0
sg22
F2401.0
sg23
F0.0
sg24
F4.0
sg25
F600000.0
sg26
F494136.0
sg27
F6.0
sg28
F213063.0
sg29
F248146.0
sg30
F1576511.0
sg31
F0.17864542612822362
sg33
F0.7898596938775511
sg34
I6
sg35
F281073.0
sg37
F0.007653061224489796
ssS'JAEDICKE ROBERT'
p352
(dp353
g3
g40
sg4
F0.0
sg5
g6
sg7
g41
sg8
F0.0
sg9
I00
sg10
F0.0
sg11
g42
sg13
g43
sg14
g15
sg16
F-25000.0
sg17
F-44093.0
sg19
g44
sg20
F0.0
sg21
g45
sg22
F0.0
sg23
F108750.0
sg24
g46
sg25
F0.0
sg26
F431750.0
sg27
g47
sg28
F44093.0
sg29
F0.0
sg30
F83750.0
sg31
g32
sg33
g48
sg34
I2
sg35
F431750.0
sg37
g49
ssS'WINOKUR JR. HERBERT S'
p354
(dp355
g3
g40
sg4
F0.0
sg5
g6
sg7
g41
sg8
F1413.0
sg9
I00
sg10
F0.0
sg11
g42
sg13
g43
sg14
g15
sg16
F-25000.0
sg17
g18
sg19
g44
sg20
F0.0
sg21
g45
sg22
F0.0
sg23
F108579.0
sg24
g46
sg25
F0.0
sg26
g82
sg27
g47
sg28
g78
sg29
F0.0
sg30
F84992.0
sg31
g32
sg33
g48
sg34
I3
sg35
g36
sg37
g49
ssS'BROWN MICHAEL'
p356
(dp357
g3
F1486.0
sg4
F0.0
sg5
g6
sg7
F0.024390243902439025
sg8
F49288.0
sg9
I00
sg10
F0.0
sg11
S'michael.brown@enron.com'
p358
sg13
F13.0
sg14
g15
sg16
F0.0
sg17
g18
sg19
F761.0
sg20
F0.0
sg21
F41.0
sg22
F0.0
sg23
F0.0
sg24
F13.0
sg25
F0.0
sg26
g82
sg27
F1.0
sg28
g78
sg29
F0.0
sg30
F49288.0
sg31
g32
sg33
F0.5121130551816958
sg34
I1
sg35
g36
sg37
F0.008748317631224764
ssS'BADUM JAMES P'
p359
(dp360
g3
g40
sg4
F178980.0
sg5
F3486.0
sg7
g41
sg8
F3486.0
sg9
I00
sg10
F0.0
sg11
g42
sg13
g43
sg14
F73.9578313253012
sg16
F0.0
sg17
g18
sg19
g44
sg20
F0.0
sg21
g45
sg22
F0.0
sg23
F0.0
sg24
g46
sg25
F0.0
sg26
F257817.0
sg27
g47
sg28
g78
sg29
F0.0
sg30
F182466.0
sg31
g32
sg33
g48
sg34
I2
sg35
F257817.0
sg37
g49
ssS'HUGHES JAMES A'
p361
(dp362
g3
F719.0
sg4
F0.0
sg5
g6
sg7
F0.14705882352941177
sg8
F0.0
sg9
I00
sg10
F0.0
sg11
S'james.hughes@enron.com'
p363
sg13
F35.0
sg14
g15
sg16
F0.0
sg17
g18
sg19
F589.0
sg20
F0.0
sg21
F34.0
sg22
F0.0
sg23
F0.0
sg24
F7.0
sg25
F0.0
sg26
F1118394.0
sg27
F5.0
sg28
F363428.0
sg29
F0.0
sg30
g56
sg31
g32
sg33
F0.8191933240611962
sg34
I0
sg35
F754966.0
sg37
F0.048678720445062586
ssS'REYNOLDS LAWRENCE'
p364
(dp365
g3
g40
sg4
F51365.0
sg5
F343110.0
sg7
g41
sg8
F8409.0
sg9
I00
sg10
F156250.0
sg11
g42
sg13
g43
sg14
F12.304773979190347
sg16
F-200000.0
sg17
F-140264.0
sg19
g44
sg20
F0.0
sg21
g45
sg22
F202052.0
sg23
F0.0
sg24
g46
sg25
F100000.0
sg26
F4221891.0
sg27
g47
sg28
F201483.0
sg29
F76399.0
sg30
F394475.0
sg31
F0.22266620034391302
sg33
g48
sg34
I7
sg35
F4160672.0
sg37
g49
ssS'DIMICHELE RICHARD G'
p366
(dp367
g3
g40
sg4
F0.0
sg5
g6
sg7
g41
sg8
F35812.0
sg9
I00
sg10
F694862.0
sg11
S'richard.dimichele@enron.com'
p368
sg13
g43
sg14
g15
sg16
F0.0
sg17
g18
sg19
g44
sg20
F0.0
sg21
g45
sg22
F374689.0
sg23
F0.0
sg24
g46
sg25
F1000000.0
sg26
F8317782.0
sg27
g47
sg28
F126027.0
sg29
F262788.0
sg30
F2368151.0
sg31
g32
sg33
g48
sg34
I5
sg35
F8191755.0
sg37
g49
ssS'BHATNAGAR SANJAY'
p369
(dp370
g3
F523.0
sg4
F0.0
sg5
g6
sg7
F0.034482758620689655
sg8
F0.0
sg9
I00
sg10
F0.0
sg11
S'sanjay.bhatnagar@enron.com'
p371
sg13
F0.0
sg14
g15
sg16
F0.0
sg17
F15456290.0
sg19
F463.0
sg20
F0.0
sg21
F29.0
sg22
F137864.0
sg23
F137864.0
sg24
F0.0
sg25
F0.0
sg26
g82
sg27
F1.0
sg28
F-2604490.0
sg29
F0.0
sg30
F15456290.0
sg31
g32
sg33
F0.8852772466539197
sg34
I2
sg35
F2604490.0
sg37
F0.0
ssS'CARTER REBECCA C'
p372
(dp373
g3
F312.0
sg4
F0.0
sg5
g6
sg7
F0.4666666666666667
sg8
F0.0
sg9
I00
sg10
F75000.0
sg11
S'rebecca.carter@enron.com'
p374
sg13
F29.0
sg14
g15
sg16
F-159792.0
sg17
F-307301.0
sg19
F196.0
sg20
F0.0
sg21
F15.0
sg22
F540.0
sg23
F0.0
sg24
F4.142857142857143
sg25
F300000.0
sg26
g82
sg27
F7.0
sg28
F307301.0
sg29
F261809.0
sg30
F477557.0
sg31
g32
sg33
F0.6282051282051282
sg34
I5
sg35
g36
sg37
F0.09294871794871795
ssS'BUCHANAN HAROLD G'
p375
(dp376
g3
F1088.0
sg4
F0.0
sg5
g6
sg7
F0.0
sg8
F600.0
sg9
I00
sg10
F304805.0
sg11
S'john.buchanan@enron.com'
p377
sg13
F0.0
sg14
g15
sg16
F0.0
sg17
g18
sg19
F23.0
sg20
F0.0
sg21
F125.0
sg22
F1215.0
sg23
F0.0
sg24
g46
sg25
F500000.0
sg26
F1014505.0
sg27
F0.0
sg28
F189041.0
sg29
F248017.0
sg30
F1054637.0
sg31
g32
sg33
F0.021139705882352942
sg34
I5
sg35
F825464.0
sg37
F0.0
ssS'YEAP SOON'
p378
(dp379
g3
g40
sg4
F0.0
sg5
g6
sg7
g41
sg8
F55097.0
sg9
I00
sg10
F0.0
sg11
g42
sg13
g43
sg14
g15
sg16
F0.0
sg17
g18
sg19
g44
sg20
F0.0
sg21
g45
sg22
F0.0
sg23
F0.0
sg24
g46
sg25
F0.0
sg26
F192758.0
sg27
g47
sg28
g78
sg29
F0.0
sg30
F55097.0
sg31
g32
sg33
g48
sg34
I1
sg35
F192758.0
sg37
g49
ssS'MURRAY JULIA H'
p380
(dp381
g3
F2192.0
sg4
F0.0
sg5
g6
sg7
F0.044444444444444446
sg8
F57580.0
sg9
I00
sg10
F125000.0
sg11
S'julia.murray@enron.com'
p382
sg13
F11.0
sg14
g15
sg16
F0.0
sg17
g18
sg19
F395.0
sg20
F0.0
sg21
F45.0
sg22
F330.0
sg23
F0.0
sg24
F5.5
sg25
F400000.0
sg26
F597461.0
sg27
F2.0
sg28
F196983.0
sg29
F229284.0
sg30
F812194.0
sg31
g32
sg33
F0.1802007299270073
sg34
I5
sg35
F400478.0
sg37
F0.005018248175182482
ssS'GARLAND C KEVIN'
p383
(dp384
g3
F209.0
sg4
F0.0
sg5
g6
sg7
F0.6136363636363636
sg8
F48405.0
sg9
I00
sg10
F375304.0
sg11
S'kevin.garland@enron.com'
p385
sg13
F10.0
sg14
g15
sg16
F0.0
sg17
g18
sg19
F178.0
sg20
F0.0
sg21
F44.0
sg22
F60814.0
sg23
F0.0
sg24
F0.37037037037037035
sg25
F850000.0
sg26
F896153.0
sg27
F27.0
sg28
F259907.0
sg29
F231946.0
sg30
F1566469.0
sg31
g32
sg33
F0.8516746411483254
sg34
I5
sg35
F636246.0
sg37
F0.04784688995215311
ssS'DODSON KEITH'
p386
(dp387
g3
F176.0
sg4
F0.0
sg5
g6
sg7
F0.21428571428571427
sg8
F28164.0
sg9
I00
sg10
F0.0
sg11
S'keith.dodson@enron.com'
p388
sg13
F10.0
sg14
g15
sg16
F0.0
sg17
g18
sg19
F114.0
sg20
F0.0
sg21
F14.0
sg22
F774.0
sg23
F0.0
sg24
F3.3333333333333335
sg25
F70000.0
sg26
g82
sg27
F3.0
sg28
g78
sg29
F221003.0
sg30
F319941.0
sg31
g32
sg33
F0.6477272727272727
sg34
I4
sg35
g36
sg37
F0.056818181818181816
ssS'YEAGER F SCOTT'
p389
(dp390
g3
g40
sg4
F0.0
sg5
g6
sg7
g41
sg8
F53947.0
sg9
I01
sg10
F0.0
sg11
S'scott.yeager@enron.com'
p391
sg13
g43
sg14
g15
sg16
F0.0
sg17
g18
sg19
g44
sg20
F0.0
sg21
g45
sg22
F147950.0
sg23
F0.0
sg24
g46
sg25
F0.0
sg26
F11884758.0
sg27
g47
sg28
F3576206.0
sg29
F158403.0
sg30
F360300.0
sg31
g32
sg33
g48
sg34
I3
sg35
F8308552.0
sg37
g49
ssS'HIRKO JOSEPH'
p392
(dp393
g3
g40
sg4
F10259.0
sg5
F80834.0
sg7
g41
sg8
F77978.0
sg9
I01
sg10
F0.0
sg11
S'joe.hirko@enron.com'
p394
sg13
g43
sg14
F380.6079619961897
sg16
F0.0
sg17
g18
sg19
g44
sg20
F0.0
sg21
g45
sg22
F2856.0
sg23
F0.0
sg24
g46
sg25
F0.0
sg26
F30766064.0
sg27
g47
sg28
g78
sg29
F0.0
sg30
F91093.0
sg31
g32
sg33
g48
sg34
I3
sg35
F30766064.0
sg37
g49
ssS'DIETRICH JANET R'
p395
(dp396
g3
F2572.0
sg4
F0.0
sg5
g6
sg7
F0.2222222222222222
sg8
F3475.0
sg9
I00
sg10
F556416.0
sg11
S'janet.dietrich@enron.com'
p397
sg13
F305.0
sg14
g15
sg16
F0.0
sg17
g18
sg19
F1902.0
sg20
F0.0
sg21
F63.0
sg22
F473.0
sg23
F0.0
sg24
F21.785714285714285
sg25
F600000.0
sg26
F1865087.0
sg27
F14.0
sg28
F315068.0
sg29
F250100.0
sg30
F1410464.0
sg31
g32
sg33
F0.73950233281493
sg34
I5
sg35
F1550019.0
sg37
F0.11858475894245724
ssS'DERRICK JR. JAMES V'
p398
(dp399
g3
F2181.0
sg4
F0.0
sg5
g6
sg7
F0.022002200220022004
sg8
F51124.0
sg9
I00
sg10
F484000.0
sg11
S'james.derrick@enron.com'
p400
sg13
F64.0
sg14
g15
sg16
F-1284000.0
sg17
F-1787380.0
sg19
F1401.0
sg20
F0.0
sg21
F909.0
sg22
F7482.0
sg23
F0.0
sg24
F3.2
sg25
F800000.0
sg26
F8831913.0
sg27
F20.0
sg28
F1787380.0
sg29
F492375.0
sg30
F550981.0
sg31
g32
sg33
F0.6423658872077029
sg34
I6
sg35
F8831913.0
sg37
F0.029344337459880788
ssS'FREVERT MARK A'
p401
(dp402
g3
F3275.0
sg4
F6426990.0
sg5
F10825540.0
sg7
F0.2857142857142857
sg8
F86987.0
sg9
I00
sg10
F1617011.0
sg11
S'mark.frevert@enron.com'
p403
sg13
F242.0
sg14
F1.3507118351601861
sg16
F-3367011.0
sg17
g18
sg19
F2979.0
sg20
F2000000.0
sg21
F21.0
sg22
F7427621.0
sg23
F0.0
sg24
F40.333333333333336
sg25
F2000000.0
sg26
F14622185.0
sg27
F6.0
sg28
F4188667.0
sg29
F1060932.0
sg30
F17252530.0
sg31
F0.09800268624013213
sg33
F0.909618320610687
sg34
I8
sg35
F10433518.0
sg37
F0.07389312977099237
ssS'PAI LOU L'
p404
(dp405
g3
g40
sg4
F0.0
sg5
g6
sg7
g41
sg8
F32047.0
sg9
I00
sg10
F0.0
sg11
S'lou.pai@enron.com'
p406
sg13
g43
sg14
g15
sg16
F0.0
sg17
g18
sg19
g44
sg20
F0.0
sg21
g45
sg22
F1829457.0
sg23
F0.0
sg24
g46
sg25
F1000000.0
sg26
F23817930.0
sg27
g47
sg28
F8453763.0
sg29
F261879.0
sg30
F3123383.0
sg31
g32
sg33
g48
sg34
I4
sg35
F15364167.0
sg37
g49
ssS'BAY FRANKLIN R'
p407
(dp408
g3
g40
sg4
F260455.0
sg5
F567241.0
sg7
g41
sg8
F129142.0
sg9
I00
sg10
F0.0
sg11
S'frank.bay@enron.com'
p409
sg13
g43
sg14
F0.111088584922458
sg16
F-201641.0
sg17
F-82782.0
sg19
g44
sg20
F0.0
sg21
g45
sg22
F69.0
sg23
F0.0
sg24
g46
sg25
F400000.0
sg26
F63014.0
sg27
g47
sg28
F145796.0
sg29
F239671.0
sg30
F827696.0
sg31
F0.42252058648793017
sg33
g48
sg34
I6
sg35
g36
sg37
g49
ssS'HAYSLETT RODERICK J'
p410
(dp411
g3
F2649.0
sg4
F0.0
sg5
g6
sg7
F0.03581526861451461
sg8
F0.0
sg9
I00
sg10
F0.0
sg11
S'rod.hayslett@enron.com'
p412
sg13
F35.0
sg14
g15
sg16
F0.0
sg17
g18
sg19
F571.0
sg20
F0.0
sg21
F1061.0
sg22
F0.0
sg23
F0.0
sg24
F0.9210526315789473
sg25
F0.0
sg26
F346663.0
sg27
F38.0
sg28
F346663.0
sg29
F0.0
sg30
g56
sg31
g32
sg33
F0.21555303888259722
sg34
I0
sg35
g36
sg37
F0.01321253303133258
ssS'FUGH JOHN L'
p413
(dp414
g3
g40
sg4
F50591.0
sg5
F0.0
sg7
g41
sg8
F0.0
sg9
I00
sg10
F0.0
sg11
g42
sg13
g43
sg14
g15
sg16
F0.0
sg17
g18
sg19
g44
sg20
F0.0
sg21
g45
sg22
F0.0
sg23
F0.0
sg24
g46
sg25
F0.0
sg26
F176378.0
sg27
g47
sg28
g78
sg29
F0.0
sg30
F50591.0
sg31
g32
sg33
g48
sg34
I1
sg35
F176378.0
sg37
g49
ssS'FALLON JAMES B'
p415
(dp416
g3
F1755.0
sg4
F0.0
sg5
g6
sg7
F0.49333333333333335
sg8
F95924.0
sg9
I00
sg10
F374347.0
sg11
S'jim.fallon@enron.com'
p417
sg13
F42.0
sg14
g15
sg16
F0.0
sg17
g18
sg19
F1604.0
sg20
F0.0
sg21
F75.0
sg22
F401481.0
sg23
F0.0
sg24
F1.135135135135135
sg25
F2500000.0
sg26
F2332399.0
sg27
F37.0
sg28
F1392142.0
sg29
F304588.0
sg30
F3676340.0
sg31
g32
sg33
F0.913960113960114
sg34
I5
sg35
F940257.0
sg37
F0.023931623931623933
ssS'KOENIG MARK E'
p418
(dp419
g3
F2374.0
sg4
F0.0
sg5
g6
sg7
F0.2459016393442623
sg8
F127017.0
sg9
I01
sg10
F300000.0
sg11
S'mark.koenig@enron.com'
p420
sg13
F53.0
sg14
g15
sg16
F0.0
sg17
g18
sg19
F2271.0
sg20
F0.0
sg21
F61.0
sg22
F150458.0
sg23
F0.0
sg24
F3.533333333333333
sg25
F700000.0
sg26
F1920055.0
sg27
F15.0
sg28
F1248318.0
sg29
F309946.0
sg30
F1587421.0
sg31
g32
sg33
F0.9566133108677338
sg34
I5
sg35
F671737.0
sg37
F0.02232518955349621
ssS'SAVAGE FRANK'
p421
(dp422
g3
g40
sg4
F0.0
sg5
g6
sg7
g41
sg8
F0.0
sg9
I00
sg10
F0.0
sg11
g42
sg13
g43
sg14
g15
sg16
F-121284.0
sg17
g18
sg19
g44
sg20
F0.0
sg21
g45
sg22
F0.0
sg23
F125034.0
sg24
g46
sg25
F0.0
sg26
g82
sg27
g47
sg28
g78
sg29
F0.0
sg30
F3750.0
sg31
g32
sg33
g48
sg34
I2
sg35
g36
sg37
g49
ssS'IZZO LAWRENCE L'
p423
(dp424
g3
F496.0
sg4
F0.0
sg5
g6
sg7
F0.2631578947368421
sg8
F28093.0
sg9
I00
sg10
F312500.0
sg11
S'larry.izzo@enron.com'
p425
sg13
F28.0
sg14
g15
sg16
F0.0
sg17
g18
sg19
F437.0
sg20
F0.0
sg21
F19.0
sg22
F1553729.0
sg23
F0.0
sg24
F5.6
sg25
F0.0
sg26
F5819980.0
sg27
F5.0
sg28
F3654808.0
sg29
F85274.0
sg30
F1979596.0
sg31
g32
sg33
F0.8810483870967742
sg34
I4
sg35
F2165172.0
sg37
F0.056451612903225805
ssS'TILNEY ELIZABETH A'
p426
(dp427
g3
F460.0
sg4
F0.0
sg5
g6
sg7
F0.5789473684210527
sg8
F0.0
sg9
I00
sg10
F275000.0
sg11
S'elizabeth.tilney@enron.com'
p428
sg13
F10.0
sg14
g15
sg16
F-575000.0
sg17
g18
sg19
F379.0
sg20
F0.0
sg21
F19.0
sg22
F152055.0
sg23
F0.0
sg24
F0.9090909090909091
sg25
F300000.0
sg26
F1168042.0
sg27
F11.0
sg28
F576792.0
sg29
F247338.0
sg30
F399393.0
sg31
g32
sg33
F0.8239130434782609
sg34
I5
sg35
F591250.0
sg37
F0.021739130434782608
ssS'MARTIN AMANDA K'
p429
(dp430
g3
F1522.0
sg4
F85430.0
sg5
F8321586.0
sg7
F0.0
sg8
F8211.0
sg9
I00
sg10
F5145434.0
sg11
S'a..martin@enron.com'
p431
sg13
F8.0
sg14
F0.2487874306652602
sg16
F0.0
sg17
g18
sg19
F477.0
sg20
F0.0
sg21
F230.0
sg22
F2818454.0
sg23
F0.0
sg24
g46
sg25
F0.0
sg26
F2070306.0
sg27
F0.0
sg28
g78
sg29
F349487.0
sg30
F8407016.0
sg31
F0.041997643237719345
sg33
F0.31340341655716164
sg34
I5
sg35
F2070306.0
sg37
F0.005256241787122208
ssS'BUY RICHARD B'
p432
(dp433
g3
F3523.0
sg4
F649584.0
sg5
F1706118.0
sg7
F0.06742640075973409
sg8
F0.0
sg9
I00
sg10
F769862.0
sg11
S'rick.buy@enron.com'
p434
sg13
F156.0
sg14
F2.018893183238205
sg16
F-694862.0
sg17
g18
sg19
F2333.0
sg20
F0.0
sg21
F1053.0
sg22
F400572.0
sg23
F0.0
sg24
F2.1971830985915495
sg25
F900000.0
sg26
F3444470.0
sg27
F71.0
sg28
F901657.0
sg29
F330546.0
sg30
F2355702.0
sg31
F0.19374158176632567
sg33
F0.6622196991200682
sg34
I6
sg35
F2542813.0
sg37
F0.04428044280442804
ssS'GRAMM WENDY L'
p435
(dp436
g3
g40
sg4
F0.0
sg5
g6
sg7
g41
sg8
F0.0
sg9
I00
sg10
F0.0
sg11
g42
sg13
g43
sg14
g15
sg16
F0.0
sg17
g18
sg19
g44
sg20
F0.0
sg21
g45
sg22
F0.0
sg23
F119292.0
sg24
g46
sg25
F0.0
sg26
g82
sg27
g47
sg28
g78
sg29
F0.0
sg30
F119292.0
sg31
g32
sg33
g48
sg34
I1
sg35
g36
sg37
g49
ssS'CAUSEY RICHARD A'
p437
(dp438
g3
F1892.0
sg4
F0.0
sg5
g6
sg7
F0.24489795918367346
sg8
F30674.0
sg9
I01
sg10
F350000.0
sg11
S'richard.causey@enron.com'
p439
sg13
F58.0
sg14
g15
sg16
F-235000.0
sg17
g18
sg19
F1585.0
sg20
F0.0
sg21
F49.0
sg22
F307895.0
sg23
F0.0
sg24
F4.833333333333333
sg25
F1000000.0
sg26
F2502063.0
sg27
F12.0
sg28
F2502063.0
sg29
F415189.0
sg30
F1868758.0
sg31
g32
sg33
F0.837737843551797
sg34
I6
sg35
g36
sg37
F0.0306553911205074
ssS'TAYLOR MITCHELL S'
p440
(dp441
g3
F533.0
sg4
F227449.0
sg5
F865214.0
sg7
F0.0
sg8
F0.0
sg9
I00
sg10
F0.0
sg11
S'mitchell.taylor@enron.com'
p442
sg13
F0.0
sg14
F4.328464403026303
sg16
F0.0
sg17
g18
sg19
F300.0
sg20
F0.0
sg21
F29.0
sg22
F0.0
sg23
F0.0
sg24
g46
sg25
F600000.0
sg26
F3745048.0
sg27
F0.0
sg28
F563798.0
sg29
F265214.0
sg30
F1092663.0
sg31
F0.30652994519275
sg33
F0.5628517823639775
sg34
I3
sg35
F3181250.0
sg37
F0.0
ssS'DONAHUE JR JEFFREY M'
p443
(dp444
g3
F865.0
sg4
F0.0
sg5
g6
sg7
F0.5
sg8
F96268.0
sg9
I00
sg10
F0.0
sg11
S'jeff.donahue@enron.com'
p445
sg13
F188.0
sg14
g15
sg16
F-300000.0
sg17
g18
sg19
F772.0
sg20
F0.0
sg21
F22.0
sg22
F891.0
sg23
F0.0
sg24
F17.09090909090909
sg25
F800000.0
sg26
F1080988.0
sg27
F11.0
sg28
F315068.0
sg29
F278601.0
sg30
F875760.0
sg31
g32
sg33
F0.892485549132948
sg34
I5
sg35
F765920.0
sg37
F0.21734104046242775
ssS'GLISAN JR BEN F'
p446
(dp447
g3
F873.0
sg4
F0.0
sg5
g6
sg7
F0.375
sg8
F125978.0
sg9
I01
sg10
F71023.0
sg11
S'ben.glisan@enron.com'
p448
sg13
F52.0
sg14
g15
sg16
F0.0
sg17
g18
sg19
F874.0
sg20
F0.0
sg21
F16.0
sg22
F200308.0
sg23
F0.0
sg24
F8.666666666666666
sg25
F600000.0
sg26
F778546.0
sg27
F6.0
sg28
F393818.0
sg29
F274975.0
sg30
F1272284.0
sg31
g32
sg33
F1.0011454753722795
sg34
I5
sg35
F384728.0
sg37
F0.05956471935853379
ss.