(dp0
S'METTS MARK'
p1
(dp2
S'to_messages'
p3
F807.0
sS'deferral_payments'
p4
F0.0
sS'adjusted_payments'
p5
F1061827.0
sS'outbox_poi_ratio'
p6
F0.034482758620689655
sS'expenses'
p7
F94299.0
sS'total_benefits'
p8
F1646889.0
sS'poi_email_traffic'
p9
F39.0
sS'poi'
p10
I00
sS'long_term_incentive'
p11
F0.0
sS'email_address'
p12
S'mark.metts@enron.com'
p13
sS'from_poi_to_this_person'
p14
F38.0
sS'payment_to_stock_value_ratio'
p15
F0.5509955953276758
sS'deferred_income'
p16
F0.0
sS'restricted_stock_deferred'
p17
F0.0
sS'shared_receipt_with_poi'
p18
F702.0
sS'loan_advances'
p19
F0.0
sS'from_messages'
p20
F29.0
sS'other'
p21
F1740.0
sS'director_fees'
p22
F0.0
sS'email_outlier'
p23
I00
sS'bonus'
p24
F600000.0
sS'total_stock_value'
p25
F585062.0
sS'total_email_traffic'
p26
F836.0
sS'from_this_person_to_poi'
p27
F1.0
sS'restricted_stock'
p28
F585062.0
sS'salary'
p29
F365788.0
sS'total_payments'
p30
F1061827.0
sS'financial_outlier'
p31
I00
sS'inbox_poi_ratio'
p32
F0.04708798017348203
sS'payments_score'
p33
I4
sS'exercised_stock_options'
p34
F0.0
ssS'BAXTER JOHN C'
p35
(dp36
g3
S'NaN'
p37
sg4
F1295738.0
sg5
F7020398.0
sg6
S'NaN'
p38
sg7
F11200.0
sg8
F16257601.0
sg9
S'NaN'
p39
sg10
I00
sg11
F1586055.0
sg12
S'NaN'
p40
sg14
S'NaN'
p41
sg15
F1.5131988243401584
sg16
F-1386055.0
sg17
F0.0
sg18
S'NaN'
p42
sg19
F0.0
sg20
S'NaN'
p43
sg21
F2660303.0
sg22
F0.0
sg23
I00
sg24
F1200000.0
sg25
F10623258.0
sg26
S'NaN'
p44
sg27
S'NaN'
p45
sg28
F3942714.0
sg29
F267102.0
sg30
F5634343.0
sg31
I00
sg32
S'NaN'
p46
sg33
I7
sg34
F6680544.0
ssS'ELLIOTT STEVEN'
p47
(dp48
g3
g37
sg4
F0.0
sg5
F612454.0
sg6
g38
sg7
F78552.0
sg8
F6890460.0
sg9
g39
sg10
I00
sg11
F0.0
sg12
S'steven.elliott@enron.com'
p49
sg14
g41
sg15
F10.904876121308702
sg16
F-400729.0
sg17
F0.0
sg18
g42
sg19
F0.0
sg20
g43
sg21
F12961.0
sg22
F0.0
sg23
I00
sg24
F350000.0
sg25
F6678735.0
sg26
g44
sg27
g45
sg28
F1788391.0
sg29
F170941.0
sg30
F211725.0
sg31
I00
sg32
g46
sg33
I5
sg34
F4890344.0
ssS'CORDES WILLIAM R'
p50
(dp51
g3
F764.0
sg4
F0.0
sg5
F0.0
sg6
F0.0
sg7
F0.0
sg8
F1038185.0
sg9
F10.0
sg10
I00
sg11
F0.0
sg12
S'bill.cordes@enron.com'
p52
sg14
F10.0
sg15
S'NaN'
p53
sg16
F0.0
sg17
F0.0
sg18
F58.0
sg19
F0.0
sg20
F12.0
sg21
F0.0
sg22
F0.0
sg23
I00
sg24
F0.0
sg25
F1038185.0
sg26
F776.0
sg27
F0.0
sg28
F386335.0
sg29
F0.0
sg30
F0.0
sg31
I00
sg32
F0.013089005235602094
sg33
I0
sg34
F651850.0
ssS'HANNON KEVIN P'
p54
(dp55
g3
F1045.0
sg4
F0.0
sg5
F3405693.0
sg6
F0.65625
sg7
F34039.0
sg8
F6679747.0
sg9
F53.0
sg10
I01
sg11
F1617011.0
sg12
S'kevin.hannon@enron.com'
p56
sg14
F32.0
sg15
F1.8765828276359613
sg16
F-3117011.0
sg17
F0.0
sg18
F1035.0
sg19
F0.0
sg20
F32.0
sg21
F11350.0
sg22
F0.0
sg23
I00
sg24
F1500000.0
sg25
F6391065.0
sg26
F1077.0
sg27
F21.0
sg28
F853064.0
sg29
F243293.0
sg30
F288682.0
sg31
I00
sg32
F0.03062200956937799
sg33
I6
sg34
F5538001.0
ssS'MORDAUNT KRISTINA M'
p57
(dp58
g3
g37
sg4
F0.0
sg5
F628522.0
sg6
g38
sg7
F35018.0
sg8
F837032.0
sg9
g39
sg10
I00
sg11
F0.0
sg12
S'kristina.mordaunt@enron.com'
p59
sg14
g41
sg15
F0.33174654188715746
sg16
F0.0
sg17
F0.0
sg18
g42
sg19
F0.0
sg20
g43
sg21
F1411.0
sg22
F0.0
sg23
I00
sg24
F325000.0
sg25
F208510.0
sg26
g44
sg27
g45
sg28
F208510.0
sg29
F267093.0
sg30
F628522.0
sg31
I00
sg32
g46
sg33
I4
sg34
F0.0
ssS'MEYER ROCKFORD G'
p60
(dp61
g3
F232.0
sg4
F1848227.0
sg5
F1848227.0
sg6
F0.0
sg7
F0.0
sg8
F2804100.0
sg9
F0.0
sg10
I00
sg11
F0.0
sg12
S'rockford.meyer@enron.com'
p62
sg14
F0.0
sg15
F0.5171837658469441
sg16
F0.0
sg17
F0.0
sg18
F22.0
sg19
F0.0
sg20
F28.0
sg21
F0.0
sg22
F0.0
sg23
I00
sg24
F0.0
sg25
F955873.0
sg26
F260.0
sg27
F0.0
sg28
F462384.0
sg29
F0.0
sg30
F1848227.0
sg31
I00
sg32
F0.0
sg33
I1
sg34
F493489.0
ssS'MCMAHON JEFFREY'
p63
(dp64
g3
F2355.0
sg4
F0.0
sg5
F4099771.0
sg6
F0.5416666666666666
sg7
F137108.0
sg8
F5762626.0
sg9
F84.0
sg10
I00
sg11
F694862.0
sg12
S'jeffrey.mcmahon@enron.com'
p65
sg14
F58.0
sg15
F0.4055970443227195
sg16
F0.0
sg17
F0.0
sg18
F2228.0
sg19
F0.0
sg20
F48.0
sg21
F297353.0
sg22
F0.0
sg23
I00
sg24
F2600000.0
sg25
F1662855.0
sg26
F2403.0
sg27
F26.0
sg28
F558801.0
sg29
F370448.0
sg30
F4099771.0
sg31
I00
sg32
F0.024628450106157114
sg33
I5
sg34
F1104054.0
ssS'HORTON STANLEY C'
p66
(dp67
g3
F2350.0
sg4
F3131860.0
sg5
F3131860.0
sg6
F0.013979496738117428
sg7
F0.0
sg8
F10388508.0
sg9
F59.0
sg10
I00
sg11
F0.0
sg12
S'stanley.horton@enron.com'
p68
sg14
F44.0
sg15
F2.3170409916152064
sg16
F0.0
sg17
F0.0
sg18
F1074.0
sg19
F0.0
sg20
F1073.0
sg21
F0.0
sg22
F0.0
sg23
I00
sg24
F0.0
sg25
F7256648.0
sg26
F3423.0
sg27
F15.0
sg28
F2046079.0
sg29
F0.0
sg30
F3131860.0
sg31
I00
sg32
F0.01872340425531915
sg33
I1
sg34
F5210569.0
ssS'PIPER GREGORY F'
p69
(dp70
g3
F1238.0
sg4
F1130036.0
sg5
F1770962.0
sg6
F0.21621621621621623
sg7
F43057.0
sg8
F2617919.0
sg9
F109.0
sg10
I00
sg11
F0.0
sg12
S'greg.piper@enron.com'
p71
sg14
F61.0
sg15
F0.4970688247404518
sg16
F-33333.0
sg17
F-409554.0
sg18
F742.0
sg19
F0.0
sg20
F222.0
sg21
F778.0
sg22
F0.0
sg23
I00
sg24
F400000.0
sg25
F880290.0
sg26
F1460.0
sg27
F48.0
sg28
F409554.0
sg29
F197091.0
sg30
F1737629.0
sg31
I00
sg32
F0.049273021001615507
sg33
I6
sg34
F880290.0
ssS'HUMPHREY GENE E'
p72
(dp73
g3
F128.0
sg4
F2964506.0
sg5
F3100224.0
sg6
F1.0
sg7
F4994.0
sg8
F5382992.0
sg9
F27.0
sg10
I00
sg11
F0.0
sg12
S'gene.humphrey@enron.com'
p74
sg14
F10.0
sg15
F0.7363235688776036
sg16
F0.0
sg17
F0.0
sg18
F119.0
sg19
F0.0
sg20
F17.0
sg21
F0.0
sg22
F0.0
sg23
I00
sg24
F0.0
sg25
F2282768.0
sg26
F145.0
sg27
F17.0
sg28
F0.0
sg29
F130724.0
sg30
F3100224.0
sg31
I00
sg32
F0.078125
sg33
I3
sg34
F2282768.0
ssS'UMANOFF ADAM S'
p75
(dp76
g3
F111.0
sg4
F0.0
sg5
F1130461.0
sg6
F0.0
sg7
F53122.0
sg8
F1130461.0
sg9
F12.0
sg10
I00
sg11
F0.0
sg12
S'adam.umanoff@enron.com'
p77
sg14
F12.0
sg15
F0.0
sg16
F0.0
sg17
F0.0
sg18
F41.0
sg19
F0.0
sg20
F18.0
sg21
F0.0
sg22
F0.0
sg23
I00
sg24
F788750.0
sg25
F0.0
sg26
F129.0
sg27
F0.0
sg28
F0.0
sg29
F288589.0
sg30
F1130461.0
sg31
I00
sg32
F0.10810810810810811
sg33
I3
sg34
F0.0
ssS'BLACHMAN JEREMY M'
p78
(dp79
g3
F2475.0
sg4
F0.0
sg5
F2014835.0
sg6
F0.14285714285714285
sg7
F84208.0
sg8
F2969189.0
sg9
F27.0
sg10
I00
sg11
F831809.0
sg12
S'jeremy.blachman@enron.com'
p80
sg14
F25.0
sg15
F0.4736636002451814
sg16
F0.0
sg17
F0.0
sg18
F2326.0
sg19
F0.0
sg20
F14.0
sg21
F272.0
sg22
F0.0
sg23
I00
sg24
F850000.0
sg25
F954354.0
sg26
F2489.0
sg27
F2.0
sg28
F189041.0
sg29
F248546.0
sg30
F2014835.0
sg31
I00
sg32
F0.010101010101010102
sg33
I5
sg34
F765313.0
ssS'SUNDE MARTIN'
p81
(dp82
g3
F2647.0
sg4
F0.0
sg5
F1545059.0
sg6
F0.34210526315789475
sg7
F0.0
sg8
F2243979.0
sg9
F50.0
sg10
I00
sg11
F476451.0
sg12
S'marty.sunde@enron.com'
p83
sg14
F37.0
sg15
F0.45235813001315806
sg16
F0.0
sg17
F0.0
sg18
F2565.0
sg19
F0.0
sg20
F38.0
sg21
F111122.0
sg22
F0.0
sg23
I00
sg24
F700000.0
sg25
F698920.0
sg26
F2685.0
sg27
F13.0
sg28
F698920.0
sg29
F257486.0
sg30
F1545059.0
sg31
I00
sg32
F0.013978088401964487
sg33
I4
sg34
F0.0
ssS'GIBBS DANA R'
p84
(dp85
g3
F169.0
sg4
F504610.0
sg5
F966522.0
sg6
F0.0
sg7
F0.0
sg8
F3184797.0
sg9
F0.0
sg10
I00
sg11
F461912.0
sg12
S'dana.gibbs@enron.com'
p86
sg14
F0.0
sg15
F2.295110716569307
sg16
F0.0
sg17
F0.0
sg18
F23.0
sg19
F0.0
sg20
F12.0
sg21
F0.0
sg22
F0.0
sg23
I00
sg24
F0.0
sg25
F2218275.0
sg26
F181.0
sg27
F0.0
sg28
F0.0
sg29
F0.0
sg30
F966522.0
sg31
I00
sg32
F0.0
sg33
I2
sg34
F2218275.0
ssS'LOWRY CHARLES P'
p87
(dp88
g3
g37
sg4
F0.0
sg5
F0.0
sg6
g38
sg7
F0.0
sg8
F372205.0
sg9
g39
sg10
I00
sg11
F0.0
sg12
g40
sg14
g41
sg15
g53
sg16
F0.0
sg17
F-153686.0
sg18
g42
sg19
F0.0
sg20
g43
sg21
F0.0
sg22
F0.0
sg23
I00
sg24
F0.0
sg25
F372205.0
sg26
g44
sg27
g45
sg28
F153686.0
sg29
F0.0
sg30
F0.0
sg31
I00
sg32
g46
sg33
I0
sg34
F372205.0
ssS'COLWELL WESLEY'
p89
(dp90
g3
F1758.0
sg4
F27610.0
sg5
F1634406.0
sg6
F0.275
sg7
F16514.0
sg8
F2188586.0
sg9
F251.0
sg10
I01
sg11
F0.0
sg12
S'wes.colwell@enron.com'
p91
sg14
F240.0
sg15
F0.4272145354336683
sg16
F-144062.0
sg17
F0.0
sg18
F1132.0
sg19
F0.0
sg20
F40.0
sg21
F101740.0
sg22
F0.0
sg23
I00
sg24
F1200000.0
sg25
F698242.0
sg26
F1798.0
sg27
F11.0
sg28
F698242.0
sg29
F288542.0
sg30
F1490344.0
sg31
I00
sg32
F0.13651877133105803
sg33
I6
sg34
F0.0
ssS'MULLER MARK S'
p92
(dp93
g3
F136.0
sg4
F842924.0
sg5
F3921070.0
sg6
F0.0
sg7
F0.0
sg8
F4618918.0
sg9
F12.0
sg10
I00
sg11
F1725545.0
sg12
S's..muller@enron.com'
p94
sg14
F12.0
sg15
F0.3613421846587794
sg16
F-719000.0
sg17
F0.0
sg18
F114.0
sg19
F0.0
sg20
F16.0
sg21
F947.0
sg22
F0.0
sg23
I00
sg24
F1100000.0
sg25
F1416848.0
sg26
F152.0
sg27
F0.0
sg28
F360528.0
sg29
F251654.0
sg30
F3202070.0
sg31
I00
sg32
F0.08823529411764706
sg33
I6
sg34
F1056320.0
ssS'JACKSON CHARLENE R'
p95
(dp96
g3
F258.0
sg4
F0.0
sg5
F551174.0
sg6
F0.3392857142857143
sg7
F10181.0
sg8
F1276909.0
sg9
F44.0
sg10
I00
sg11
F0.0
sg12
S'charlene.jackson@enron.com'
p97
sg14
F25.0
sg15
F1.3167076095751977
sg16
F0.0
sg17
F0.0
sg18
F117.0
sg19
F0.0
sg20
F56.0
sg21
F2435.0
sg22
F0.0
sg23
I00
sg24
F250000.0
sg25
F725735.0
sg26
F314.0
sg27
F19.0
sg28
F540672.0
sg29
F288558.0
sg30
F551174.0
sg31
I00
sg32
F0.09689922480620156
sg33
I4
sg34
F185063.0
ssS'WESTFAHL RICHARD K'
p98
(dp99
g3
g37
sg4
F0.0
sg5
F772935.0
sg6
g38
sg7
F51870.0
sg8
F1147065.0
sg9
g39
sg10
I00
sg11
F256191.0
sg12
S'dick.westfahl@enron.com'
p100
sg14
g41
sg15
F0.4980108288536552
sg16
F-10800.0
sg17
F0.0
sg18
g42
sg19
F0.0
sg20
g43
sg21
F401130.0
sg22
F0.0
sg23
I00
sg24
F0.0
sg25
F384930.0
sg26
g44
sg27
g45
sg28
F384930.0
sg29
F63744.0
sg30
F762135.0
sg31
I00
sg32
g46
sg33
I5
sg34
F0.0
ssS'WALTERS GARETH W'
p101
(dp102
g3
g37
sg4
F53625.0
sg5
F87410.0
sg6
g38
sg7
F33785.0
sg8
F1117739.0
sg9
g39
sg10
I00
sg11
F0.0
sg12
g40
sg14
g41
sg15
F11.787312664454868
sg16
F0.0
sg17
F0.0
sg18
g42
sg19
F0.0
sg20
g43
sg21
F0.0
sg22
F0.0
sg23
I00
sg24
F0.0
sg25
F1030329.0
sg26
g44
sg27
g45
sg28
F0.0
sg29
F0.0
sg30
F87410.0
sg31
I00
sg32
g46
sg33
I2
sg34
F1030329.0
ssS'WALLS JR ROBERT H'
p103
(dp104
g3
F671.0
sg4
F0.0
sg5
F1798780.0
sg6
F0.0
sg7
F50936.0
sg8
F7697777.0
sg9
F17.0
sg10
I00
sg11
F540751.0
sg12
S'rob.walls@enron.com'
p105
sg14
F17.0
sg15
F3.279443289340553
sg16
F0.0
sg17
F0.0
sg18
F215.0
sg19
F0.0
sg20
F146.0
sg21
F2.0
sg22
F0.0
sg23
I00
sg24
F850000.0
sg25
F5898997.0
sg26
F817.0
sg27
F0.0
sg28
F1552453.0
sg29
F357091.0
sg30
F1798780.0
sg31
I00
sg32
F0.02533532041728763
sg33
I5
sg34
F4346544.0
ssS'KITCHEN LOUISE'
p106
(dp107
g3
F8305.0
sg4
F0.0
sg5
F3471141.0
sg6
F0.11226851851851852
sg7
F5774.0
sg8
F4018284.0
sg9
F445.0
sg10
I00
sg11
F0.0
sg12
S'louise.kitchen@enron.com'
p108
sg14
F251.0
sg15
F0.15762626755870765
sg16
F0.0
sg17
F0.0
sg18
F3669.0
sg19
F0.0
sg20
F1728.0
sg21
F93925.0
sg22
F0.0
sg23
I00
sg24
F3100000.0
sg25
F547143.0
sg26
F10033.0
sg27
F194.0
sg28
F466101.0
sg29
F271442.0
sg30
F3471141.0
sg31
I00
sg32
F0.030222757375075255
sg33
I4
sg34
F81042.0
ssS'CHAN RONNIE'
p109
(dp110
g3
g37
sg4
F0.0
sg5
F98784.0
sg6
g38
sg7
F0.0
sg8
F0.0
sg9
g39
sg10
I00
sg11
F0.0
sg12
g40
sg14
g41
sg15
F0.0
sg16
F-98784.0
sg17
F-32460.0
sg18
g42
sg19
F0.0
sg20
g43
sg21
F0.0
sg22
F98784.0
sg23
I00
sg24
F0.0
sg25
F0.0
sg26
g44
sg27
g45
sg28
F32460.0
sg29
F0.0
sg30
F0.0
sg31
I00
sg32
g46
sg33
I2
sg34
F0.0
ssS'BELFER ROBERT'
p111
(dp112
g3
g37
sg4
F-102500.0
sg5
F3285.0
sg6
g38
sg7
F3285.0
sg8
F3285.0
sg9
g39
sg10
I00
sg11
F0.0
sg12
g40
sg14
g41
sg15
F0.0
sg16
F0.0
sg17
F-44093.0
sg18
g42
sg19
F0.0
sg20
g43
sg21
F0.0
sg22
F102500.0
sg23
I00
sg24
F0.0
sg25
F0.0
sg26
g44
sg27
g45
sg28
F44093.0
sg29
F0.0
sg30
F3285.0
sg31
I00
sg32
g46
sg33
I3
sg34
F0.0
ssS'SHANKMAN JEFFREY A'
p113
(dp114
g3
F3221.0
sg4
F0.0
sg5
F3038702.0
sg6
F0.030958597538232
sg7
F178979.0
sg8
F5110737.0
sg9
F177.0
sg10
I00
sg11
F554422.0
sg12
S'jeffrey.shankman@enron.com'
p115
sg14
F94.0
sg15
F0.6818816060278369
sg16
F0.0
sg17
F0.0
sg18
F1730.0
sg19
F0.0
sg20
F2681.0
sg21
F1191.0
sg22
F0.0
sg23
I00
sg24
F2000000.0
sg25
F2072035.0
sg26
F5902.0
sg27
F83.0
sg28
F630137.0
sg29
F304110.0
sg30
F3038702.0
sg31
I00
sg32
F0.029183483390251473
sg33
I5
sg34
F1441898.0
ssS'WODRASKA JOHN'
p116
(dp117
g3
g37
sg4
F0.0
sg5
F189583.0
sg6
g38
sg7
F0.0
sg8
F189583.0
sg9
g39
sg10
I00
sg11
F0.0
sg12
S'john.wodraska@enron.com'
p118
sg14
g41
sg15
F0.0
sg16
F0.0
sg17
F0.0
sg18
g42
sg19
F0.0
sg20
g43
sg21
F189583.0
sg22
F0.0
sg23
I00
sg24
F0.0
sg25
F0.0
sg26
g44
sg27
g45
sg28
F0.0
sg29
F0.0
sg30
F189583.0
sg31
I00
sg32
g46
sg33
I1
sg34
F0.0
ssS'BERGSIEKER RICHARD P'
p119
(dp120
g3
F383.0
sg4
F0.0
sg5
F1104663.0
sg6
F0.0
sg7
F59175.0
sg8
F1278099.0
sg9
F4.0
sg10
I00
sg11
F180250.0
sg12
S'rick.bergsieker@enron.com'
p121
sg14
F4.0
sg15
F0.596787436530417
sg16
F-485813.0
sg17
F0.0
sg18
F233.0
sg19
F0.0
sg20
F59.0
sg21
F427316.0
sg22
F0.0
sg23
I00
sg24
F250000.0
sg25
F659249.0
sg26
F442.0
sg27
F0.0
sg28
F659249.0
sg29
F187922.0
sg30
F618850.0
sg31
I00
sg32
F0.010443864229765013
sg33
I6
sg34
F0.0
ssS'URQUHART JOHN A'
p122
(dp123
g3
g37
sg4
F0.0
sg5
F265322.0
sg6
g38
sg7
F228656.0
sg8
F228656.0
sg9
g39
sg10
I00
sg11
F0.0
sg12
g40
sg14
g41
sg15
F0.0
sg16
F-36666.0
sg17
F0.0
sg18
g42
sg19
F0.0
sg20
g43
sg21
F0.0
sg22
F36666.0
sg23
I00
sg24
F0.0
sg25
F0.0
sg26
g44
sg27
g45
sg28
F0.0
sg29
F0.0
sg30
F228656.0
sg31
I00
sg32
g46
sg33
I3
sg34
F0.0
ssS'BIBI PHILIPPE A'
p124
(dp125
g3
F1607.0
sg4
F0.0
sg5
F2047593.0
sg6
F0.2
sg7
F38559.0
sg8
F3891409.0
sg9
F31.0
sg10
I00
sg11
F369721.0
sg12
S'philippe.bibi@enron.com'
p126
sg14
F23.0
sg15
F0.9004797340096397
sg16
F0.0
sg17
F0.0
sg18
F1336.0
sg19
F0.0
sg20
F40.0
sg21
F425688.0
sg22
F0.0
sg23
I00
sg24
F1000000.0
sg25
F1843816.0
sg26
F1647.0
sg27
F8.0
sg28
F378082.0
sg29
F213625.0
sg30
F2047593.0
sg31
I00
sg32
F0.01431238332296204
sg33
I5
sg34
F1465734.0
ssS'PIRO JIM'
p127
(dp128
g3
F58.0
sg4
F0.0
sg5
F0.0
sg6
F0.0625
sg7
F0.0
sg8
F47304.0
sg9
F1.0
sg10
I00
sg11
F0.0
sg12
S'jim.piro@enron.com'
p129
sg14
F0.0
sg15
g53
sg16
F0.0
sg17
F0.0
sg18
F3.0
sg19
F0.0
sg20
F16.0
sg21
F0.0
sg22
F0.0
sg23
I00
sg24
F0.0
sg25
F47304.0
sg26
F74.0
sg27
F1.0
sg28
F47304.0
sg29
F0.0
sg30
F0.0
sg31
I00
sg32
F0.0
sg33
I0
sg34
F0.0
ssS'RIEKER PAULA H'
p130
(dp131
g3
F1328.0
sg4
F214678.0
sg5
F1199100.0
sg6
F0.5853658536585366
sg7
F33271.0
sg8
F3017987.0
sg9
F83.0
sg10
I01
sg11
F0.0
sg12
S'paula.rieker@enron.com'
p132
sg14
F35.0
sg15
F1.6002727045283962
sg16
F-100000.0
sg17
F0.0
sg18
F1258.0
sg19
F0.0
sg20
F82.0
sg21
F1950.0
sg22
F0.0
sg23
I00
sg24
F700000.0
sg25
F1918887.0
sg26
F1410.0
sg27
F48.0
sg28
F283649.0
sg29
F249201.0
sg30
F1099100.0
sg31
I00
sg32
F0.02635542168674699
sg33
I6
sg34
F1635238.0
ssS'WHALEY DAVID A'
p133
(dp134
g3
g37
sg4
F0.0
sg5
F0.0
sg6
g38
sg7
F0.0
sg8
F98718.0
sg9
g39
sg10
I00
sg11
F0.0
sg12
g40
sg14
g41
sg15
g53
sg16
F0.0
sg17
F0.0
sg18
g42
sg19
F0.0
sg20
g43
sg21
F0.0
sg22
F0.0
sg23
I00
sg24
F0.0
sg25
F98718.0
sg26
g44
sg27
g45
sg28
F0.0
sg29
F0.0
sg30
F0.0
sg31
I00
sg32
g46
sg33
I0
sg34
F98718.0
ssS'BECK SALLY W'
p135
(dp136
g3
F7315.0
sg4
F0.0
sg5
F969068.0
sg6
F0.08887865530739121
sg7
F37172.0
sg8
F1095095.0
sg9
F530.0
sg10
I00
sg11
F0.0
sg12
S'sally.beck@enron.com'
p137
sg14
F144.0
sg15
F0.13004969723486898
sg16
F0.0
sg17
F0.0
sg18
F2639.0
sg19
F0.0
sg20
F4343.0
sg21
F566.0
sg22
F0.0
sg23
I00
sg24
F700000.0
sg25
F126027.0
sg26
F11658.0
sg27
F386.0
sg28
F126027.0
sg29
F231330.0
sg30
F969068.0
sg31
I00
sg32
F0.01968557758031442
sg33
I4
sg34
F0.0
ssS'HAUG DAVID L'
p138
(dp139
g3
F573.0
sg4
F0.0
sg5
F475.0
sg6
F0.3684210526315789
sg7
F475.0
sg8
F2217774.0
sg9
F11.0
sg10
I00
sg11
F0.0
sg12
S'david.haug@enron.com'
p140
sg14
F4.0
sg15
F4667.997894736842
sg16
F0.0
sg17
F0.0
sg18
F471.0
sg19
F0.0
sg20
F19.0
sg21
F0.0
sg22
F0.0
sg23
I00
sg24
F0.0
sg25
F2217299.0
sg26
F592.0
sg27
F7.0
sg28
F2217299.0
sg29
F0.0
sg30
F475.0
sg31
I00
sg32
F0.006980802792321117
sg33
I1
sg34
F0.0
ssS'ECHOLS JOHN B'
p141
(dp142
g3
g37
sg4
F0.0
sg5
F2692324.0
sg6
g38
sg7
F21530.0
sg8
F3701265.0
sg9
g39
sg10
I00
sg11
F2234774.0
sg12
S'john.echols@enron.com'
p143
sg14
g41
sg15
F0.3747472443881197
sg16
F0.0
sg17
F0.0
sg18
g42
sg19
F0.0
sg20
g43
sg21
F53775.0
sg22
F0.0
sg23
I00
sg24
F200000.0
sg25
F1008941.0
sg26
g44
sg27
g45
sg28
F407503.0
sg29
F182245.0
sg30
F2692324.0
sg31
I00
sg32
g46
sg33
I5
sg34
F601438.0
ssS'MENDELSOHN JOHN'
p144
(dp145
g3
g37
sg4
F0.0
sg5
F103898.0
sg6
g38
sg7
F148.0
sg8
F148.0
sg9
g39
sg10
I00
sg11
F0.0
sg12
g40
sg14
g41
sg15
F0.0
sg16
F-103750.0
sg17
F0.0
sg18
g42
sg19
F0.0
sg20
g43
sg21
F0.0
sg22
F103750.0
sg23
I00
sg24
F0.0
sg25
F0.0
sg26
g44
sg27
g45
sg28
F0.0
sg29
F0.0
sg30
F148.0
sg31
I00
sg32
g46
sg33
I3
sg34
F0.0
ssS'HICKERSON GARY J'
p146
(dp147
g3
F1320.0
sg4
F0.0
sg5
F2081796.0
sg6
F0.037037037037037035
sg7
F98849.0
sg8
F2522892.0
sg9
F41.0
sg10
I00
sg11
F69223.0
sg12
S'gary.hickerson@enron.com'
p148
sg14
F40.0
sg15
F0.21188243228443132
sg16
F0.0
sg17
F0.0
sg18
F900.0
sg19
F0.0
sg20
F27.0
sg21
F1936.0
sg22
F0.0
sg23
I00
sg24
F1700000.0
sg25
F441096.0
sg26
F1347.0
sg27
F1.0
sg28
F441096.0
sg29
F211788.0
sg30
F2081796.0
sg31
I00
sg32
F0.030303030303030304
sg33
I5
sg34
F0.0
ssS'CLINE KENNETH W'
p149
(dp150
g3
g37
sg4
F0.0
sg5
F0.0
sg6
g38
sg7
F0.0
sg8
F189518.0
sg9
g39
sg10
I00
sg11
F0.0
sg12
g40
sg14
g41
sg15
g53
sg16
F0.0
sg17
F-472568.0
sg18
g42
sg19
F0.0
sg20
g43
sg21
F0.0
sg22
F0.0
sg23
I00
sg24
F0.0
sg25
F189518.0
sg26
g44
sg27
g45
sg28
F662086.0
sg29
F0.0
sg30
F0.0
sg31
I00
sg32
g46
sg33
I0
sg34
F0.0
ssS'LEWIS RICHARD'
p151
(dp152
g3
F952.0
sg4
F0.0
sg5
F0.0
sg6
F0.0
sg7
F0.0
sg8
F850477.0
sg9
F10.0
sg10
I00
sg11
F0.0
sg12
S'richard.lewis@enron.com'
p153
sg14
F10.0
sg15
g53
sg16
F0.0
sg17
F0.0
sg18
F739.0
sg19
F0.0
sg20
F26.0
sg21
F0.0
sg22
F0.0
sg23
I00
sg24
F0.0
sg25
F850477.0
sg26
F978.0
sg27
F0.0
sg28
F0.0
sg29
F0.0
sg30
F0.0
sg31
I00
sg32
F0.01050420168067227
sg33
I0
sg34
F850477.0
ssS'HAYES ROBERT E'
p154
(dp155
g3
F504.0
sg4
F7961.0
sg5
F7961.0
sg6
F0.0
sg7
F0.0
sg8
F159379.0
sg9
F16.0
sg10
I00
sg11
F0.0
sg12
S'robert.hayes@enron.com'
p156
sg14
F16.0
sg15
F19.019972365280744
sg16
F0.0
sg17
F0.0
sg18
F50.0
sg19
F0.0
sg20
F12.0
sg21
F0.0
sg22
F0.0
sg23
I00
sg24
F0.0
sg25
F151418.0
sg26
F516.0
sg27
F0.0
sg28
F151418.0
sg29
F0.0
sg30
F7961.0
sg31
I00
sg32
F0.031746031746031744
sg33
I1
sg34
F0.0
ssS'KOPPER MICHAEL J'
p157
(dp158
g3
g37
sg4
F0.0
sg5
F2652612.0
sg6
g38
sg7
F118134.0
sg8
F3637644.0
sg9
g39
sg10
I01
sg11
F602671.0
sg12
S'michael.kopper@enron.com'
p159
sg14
g41
sg15
F0.3713441694450602
sg16
F0.0
sg17
F0.0
sg18
g42
sg19
F0.0
sg20
g43
sg21
F907502.0
sg22
F0.0
sg23
I00
sg24
F800000.0
sg25
F985032.0
sg26
g44
sg27
g45
sg28
F985032.0
sg29
F224305.0
sg30
F2652612.0
sg31
I00
sg32
g46
sg33
I5
sg34
F0.0
ssS'LEFF DANIEL P'
p160
(dp161
g3
F2822.0
sg4
F0.0
sg5
F2664228.0
sg6
F0.2222222222222222
sg7
F0.0
sg8
F3024756.0
sg9
F81.0
sg10
I00
sg11
F1387399.0
sg12
S'dan.leff@enron.com'
p162
sg14
F67.0
sg15
F0.13532175174196803
sg16
F0.0
sg17
F0.0
sg18
F2672.0
sg19
F0.0
sg20
F63.0
sg21
F3083.0
sg22
F0.0
sg23
I00
sg24
F1000000.0
sg25
F360528.0
sg26
F2885.0
sg27
F14.0
sg28
F360528.0
sg29
F273746.0
sg30
F2664228.0
sg31
I00
sg32
F0.02374202693125443
sg33
I4
sg34
F0.0
ssS'LAVORATO JOHN J'
p163
(dp164
g3
F7259.0
sg4
F0.0
sg5
F10425757.0
sg6
F0.15899419729206962
sg7
F49537.0
sg8
F15592901.0
sg9
F939.0
sg10
I00
sg11
F2035380.0
sg12
S'john.lavorato@enron.com'
p165
sg14
F528.0
sg15
F0.4956133161361808
sg16
F0.0
sg17
F0.0
sg18
F3962.0
sg19
F0.0
sg20
F2585.0
sg21
F1552.0
sg22
F0.0
sg23
I00
sg24
F8000000.0
sg25
F5167144.0
sg26
F9844.0
sg27
F411.0
sg28
F1008149.0
sg29
F339288.0
sg30
F10425757.0
sg31
I00
sg32
F0.07273729163796666
sg33
I5
sg34
F4158995.0
ssS'BERBERIAN DAVID'
p166
(dp167
g3
g37
sg4
F0.0
sg5
F228474.0
sg6
g38
sg7
F11892.0
sg8
F2722090.0
sg9
g39
sg10
I00
sg11
F0.0
sg12
S'david.berberian@enron.com'
p168
sg14
g41
sg15
F10.914222187207297
sg16
F0.0
sg17
F0.0
sg18
g42
sg19
F0.0
sg20
g43
sg21
F0.0
sg22
F0.0
sg23
I00
sg24
F0.0
sg25
F2493616.0
sg26
g44
sg27
g45
sg28
F869220.0
sg29
F216582.0
sg30
F228474.0
sg31
I00
sg32
g46
sg33
I2
sg34
F1624396.0
ssS'DETMERING TIMOTHY J'
p169
(dp170
g3
g37
sg4
F875307.0
sg5
F1979824.0
sg6
g38
sg7
F52255.0
sg8
F3232448.0
sg9
g39
sg10
I00
sg11
F415657.0
sg12
S'timothy.detmering@enron.com'
p171
sg14
g41
sg15
F1.0242652882276404
sg16
F-775241.0
sg17
F-315068.0
sg18
g42
sg19
F0.0
sg20
g43
sg21
F1105.0
sg22
F0.0
sg23
I00
sg24
F425000.0
sg25
F2027865.0
sg26
g44
sg27
g45
sg28
F315068.0
sg29
F210500.0
sg30
F1204583.0
sg31
I00
sg32
g46
sg33
I7
sg34
F2027865.0
ssS'WAKEHAM JOHN'
p172
(dp173
g3
g37
sg4
F0.0
sg5
F213071.0
sg6
g38
sg7
F103773.0
sg8
F213071.0
sg9
g39
sg10
I00
sg11
F0.0
sg12
g40
sg14
g41
sg15
F0.0
sg16
F0.0
sg17
F0.0
sg18
g42
sg19
F0.0
sg20
g43
sg21
F0.0
sg22
F109298.0
sg23
I00
sg24
F0.0
sg25
F0.0
sg26
g44
sg27
g45
sg28
F0.0
sg29
F0.0
sg30
F213071.0
sg31
I00
sg32
g46
sg33
I2
sg34
F0.0
ssS'POWERS WILLIAM'
p174
(dp175
g3
F653.0
sg4
F0.0
sg5
F17500.0
sg6
F0.0
sg7
F0.0
sg8
F0.0
sg9
F0.0
sg10
I00
sg11
F0.0
sg12
S'ken.powers@enron.com'
p176
sg14
F0.0
sg15
F0.0
sg16
F-17500.0
sg17
F0.0
sg18
F12.0
sg19
F0.0
sg20
F26.0
sg21
F0.0
sg22
F17500.0
sg23
I00
sg24
F0.0
sg25
F0.0
sg26
F679.0
sg27
F0.0
sg28
F0.0
sg29
F0.0
sg30
F0.0
sg31
I00
sg32
F0.0
sg33
I2
sg34
F0.0
ssS'GOLD JOSEPH'
p177
(dp178
g3
g37
sg4
F0.0
sg5
F2146973.0
sg6
g38
sg7
F0.0
sg8
F3024584.0
sg9
g39
sg10
I00
sg11
F304805.0
sg12
S'joe.gold@enron.com'
p179
sg14
g41
sg15
F0.4087666682347659
sg16
F0.0
sg17
F0.0
sg18
g42
sg19
F0.0
sg20
g43
sg21
F819288.0
sg22
F0.0
sg23
I00
sg24
F750000.0
sg25
F877611.0
sg26
g44
sg27
g45
sg28
F441096.0
sg29
F272880.0
sg30
F2146973.0
sg31
I00
sg32
g46
sg33
I4
sg34
F436515.0
ssS'BANNANTINE JAMES M'
p180
(dp181
g3
F566.0
sg4
F0.0
sg5
F921301.0
sg6
F0.0
sg7
F56301.0
sg8
F6159684.0
sg9
F39.0
sg10
I00
sg11
F0.0
sg12
S'james.bannantine@enron.com'
p182
sg14
F39.0
sg15
F5.6913940178074265
sg16
F-5104.0
sg17
F-560222.0
sg18
F465.0
sg19
F0.0
sg20
F29.0
sg21
F864523.0
sg22
F0.0
sg23
I00
sg24
F0.0
sg25
F5243487.0
sg26
F595.0
sg27
F0.0
sg28
F1757552.0
sg29
F477.0
sg30
F916197.0
sg31
I00
sg32
F0.06890459363957598
sg33
I4
sg34
F4046157.0
ssS'DUNCAN JOHN H'
p183
(dp184
g3
g37
sg4
F0.0
sg5
F102492.0
sg6
g38
sg7
F0.0
sg8
F449242.0
sg9
g39
sg10
I00
sg11
F0.0
sg12
g40
sg14
g41
sg15
F3.627112359989072
sg16
F-25000.0
sg17
F0.0
sg18
g42
sg19
F0.0
sg20
g43
sg21
F0.0
sg22
F102492.0
sg23
I00
sg24
F0.0
sg25
F371750.0
sg26
g44
sg27
g45
sg28
F0.0
sg29
F0.0
sg30
F77492.0
sg31
I00
sg32
g46
sg33
I2
sg34
F371750.0
ssS'SHERRIFF JOHN R'
p185
(dp186
g3
F3187.0
sg4
F0.0
sg5
F4335388.0
sg6
F0.25
sg7
F0.0
sg8
F7464370.0
sg9
F51.0
sg10
I00
sg11
F554422.0
sg12
S'john.sherriff@enron.com'
p187
sg14
F28.0
sg15
F0.7217305579108491
sg16
F0.0
sg17
F0.0
sg18
F2103.0
sg19
F0.0
sg20
F92.0
sg21
F1852186.0
sg22
F0.0
sg23
I00
sg24
F1500000.0
sg25
F3128982.0
sg26
F3279.0
sg27
F23.0
sg28
F1293424.0
sg29
F428780.0
sg30
F4335388.0
sg31
I00
sg32
F0.008785691873235017
sg33
I4
sg34
F1835558.0
ssS'SHELBY REX'
p188
(dp189
g3
F225.0
sg4
F0.0
sg5
F2008052.0
sg6
F0.358974358974359
sg7
F22884.0
sg8
F4497501.0
sg9
F27.0
sg10
I01
sg11
F0.0
sg12
S'rex.shelby@enron.com'
p190
sg14
F13.0
sg15
F1.2418084790632913
sg16
F-4167.0
sg17
F0.0
sg18
F91.0
sg19
F0.0
sg20
F39.0
sg21
F1573324.0
sg22
F0.0
sg23
I00
sg24
F200000.0
sg25
F2493616.0
sg26
F264.0
sg27
F14.0
sg28
F869220.0
sg29
F211844.0
sg30
F2003885.0
sg31
I00
sg32
F0.057777777777777775
sg33
I5
sg34
F1624396.0
ssS'LEMAISTRE CHARLES'
p191
(dp192
g3
g37
sg4
F0.0
sg5
F112492.0
sg6
g38
sg7
F0.0
sg8
F500370.0
sg9
g39
sg10
I00
sg11
F0.0
sg12
g40
sg14
g41
sg15
F3.670287664900615
sg16
F-25000.0
sg17
F0.0
sg18
g42
sg19
F0.0
sg20
g43
sg21
F0.0
sg22
F112492.0
sg23
I00
sg24
F0.0
sg25
F412878.0
sg26
g44
sg27
g45
sg28
F0.0
sg29
F0.0
sg30
F87492.0
sg31
I00
sg32
g46
sg33
I2
sg34
F412878.0
ssS'DEFFNER JOSEPH M'
p193
(dp194
g3
F714.0
sg4
F0.0
sg5
F1208649.0
sg6
F0.05405405405405406
sg7
F41626.0
sg8
F1367860.0
sg9
F119.0
sg10
I00
sg11
F335349.0
sg12
S'joseph.deffner@enron.com'
p195
sg14
F115.0
sg15
F0.13172641519580955
sg16
F0.0
sg17
F0.0
sg18
F552.0
sg19
F0.0
sg20
F74.0
sg21
F25553.0
sg22
F0.0
sg23
I00
sg24
F600000.0
sg25
F159211.0
sg26
F788.0
sg27
F4.0
sg28
F141833.0
sg29
F206121.0
sg30
F1208649.0
sg31
I00
sg32
F0.16106442577030813
sg33
I5
sg34
F17378.0
ssS'KISHKILL JOSEPH G'
p196
(dp197
g3
g37
sg4
F0.0
sg5
F755938.0
sg6
g38
sg7
F116335.0
sg8
F1739242.0
sg9
g39
sg10
I00
sg11
F0.0
sg12
S'joe.kishkill@enron.com'
p198
sg14
g41
sg15
F1.3682947543317046
sg16
F-51042.0
sg17
F0.0
sg18
g42
sg19
F0.0
sg20
g43
sg21
F465357.0
sg22
F0.0
sg23
I00
sg24
F0.0
sg25
F1034346.0
sg26
g44
sg27
g45
sg28
F1034346.0
sg29
F174246.0
sg30
F704896.0
sg31
I00
sg32
g46
sg33
I4
sg34
F0.0
ssS'WHALLEY LAWRENCE G'
p199
(dp200
g3
F6019.0
sg4
F0.0
sg5
F4677574.0
sg6
F0.04316546762589928
sg7
F57838.0
sg8
F10756711.0
sg9
F210.0
sg10
I00
sg11
F808346.0
sg12
S'greg.whalley@enron.com'
p201
sg14
F186.0
sg15
F1.2996345969085683
sg16
F0.0
sg17
F0.0
sg18
F3920.0
sg19
F0.0
sg20
F556.0
sg21
F301026.0
sg22
F0.0
sg23
I00
sg24
F3000000.0
sg25
F6079137.0
sg26
F6575.0
sg27
F24.0
sg28
F2796177.0
sg29
F510364.0
sg30
F4677574.0
sg31
I00
sg32
F0.03090214321315833
sg33
I5
sg34
F3282960.0
ssS'HAYSLETT RODERICK J'
p202
(dp203
g3
F2649.0
sg4
F0.0
sg5
F0.0
sg6
F0.03581526861451461
sg7
F0.0
sg8
F346663.0
sg9
F73.0
sg10
I00
sg11
F0.0
sg12
S'rod.hayslett@enron.com'
p204
sg14
F35.0
sg15
g53
sg16
F0.0
sg17
F0.0
sg18
F571.0
sg19
F0.0
sg20
F1061.0
sg21
F0.0
sg22
F0.0
sg23
I00
sg24
F0.0
sg25
F346663.0
sg26
F3710.0
sg27
F38.0
sg28
F346663.0
sg29
F0.0
sg30
F0.0
sg31
I00
sg32
F0.01321253303133258
sg33
I0
sg34
F0.0
ssS'MCCONNELL MICHAEL S'
p205
(dp206
g3
F3329.0
sg4
F0.0
sg5
F2101364.0
sg6
F0.07075127644055434
sg7
F81364.0
sg8
F5202643.0
sg9
F286.0
sg10
I00
sg11
F554422.0
sg12
S'mike.mcconnell@enron.com'
p207
sg14
F92.0
sg15
F1.475840929986428
sg16
F0.0
sg17
F0.0
sg18
F2189.0
sg19
F0.0
sg20
F2742.0
sg21
F540.0
sg22
F0.0
sg23
I00
sg24
F1100000.0
sg25
F3101279.0
sg26
F6071.0
sg27
F194.0
sg28
F1478269.0
sg29
F365038.0
sg30
F2101364.0
sg31
I00
sg32
F0.02763592670471613
sg33
I5
sg34
F1623010.0
ssS'DELAINEY DAVID W'
p208
(dp209
g3
F3093.0
sg4
F0.0
sg5
F4747979.0
sg6
F0.198435972629521
sg7
F86174.0
sg8
F8362240.0
sg9
F675.0
sg10
I01
sg11
F1294981.0
sg12
S'david.delainey@enron.com'
p210
sg14
F66.0
sg15
F0.7612209321060602
sg16
F0.0
sg17
F0.0
sg18
F2097.0
sg19
F0.0
sg20
F3069.0
sg21
F1661.0
sg22
F0.0
sg23
I00
sg24
F3000000.0
sg25
F3614261.0
sg26
F6162.0
sg27
F609.0
sg28
F1323148.0
sg29
F365163.0
sg30
F4747979.0
sg31
I00
sg32
F0.02133850630455868
sg33
I5
sg34
F2291113.0
ssS'SULLIVAN-SHAKLOVITZ COLLEEN'
p211
(dp212
g3
g37
sg4
F181993.0
sg5
F999356.0
sg6
g38
sg7
F0.0
sg8
F2361731.0
sg9
g39
sg10
I00
sg11
F554422.0
sg12
g40
sg14
g41
sg15
F1.3632529348900693
sg16
F0.0
sg17
F0.0
sg18
g42
sg19
F0.0
sg20
g43
sg21
F162.0
sg22
F0.0
sg23
I00
sg24
F100000.0
sg25
F1362375.0
sg26
g44
sg27
g45
sg28
F0.0
sg29
F162779.0
sg30
F999356.0
sg31
I00
sg32
g46
sg33
I5
sg34
F1362375.0
ssS'WROBEL BRUCE'
p213
(dp214
g3
g37
sg4
F0.0
sg5
F0.0
sg6
g38
sg7
F0.0
sg8
F139130.0
sg9
g39
sg10
I00
sg11
F0.0
sg12
g40
sg14
g41
sg15
g53
sg16
F0.0
sg17
F0.0
sg18
g42
sg19
F0.0
sg20
g43
sg21
F0.0
sg22
F0.0
sg23
I00
sg24
F0.0
sg25
F139130.0
sg26
g44
sg27
g45
sg28
F0.0
sg29
F0.0
sg30
F0.0
sg31
I00
sg32
g46
sg33
I0
sg34
F139130.0
ssS'LINDHOLM TOD A'
p215
(dp216
g3
g37
sg4
F204075.0
sg5
F875889.0
sg6
g38
sg7
F57727.0
sg8
F3940097.0
sg9
g39
sg10
I00
sg11
F175000.0
sg12
S'tod.lindholm@enron.com'
p217
sg14
g41
sg15
F3.498397628009942
sg16
F0.0
sg17
F0.0
sg18
g42
sg19
F0.0
sg20
g43
sg21
F2630.0
sg22
F0.0
sg23
I00
sg24
F200000.0
sg25
F3064208.0
sg26
g44
sg27
g45
sg28
F514847.0
sg29
F236457.0
sg30
F875889.0
sg31
I00
sg32
g46
sg33
I6
sg34
F2549361.0
ssS'MEYER JEROME J'
p218
(dp219
g3
g37
sg4
F0.0
sg5
F40497.0
sg6
g38
sg7
F2151.0
sg8
F2151.0
sg9
g39
sg10
I00
sg11
F0.0
sg12
g40
sg14
g41
sg15
F0.0
sg16
F-38346.0
sg17
F0.0
sg18
g42
sg19
F0.0
sg20
g43
sg21
F0.0
sg22
F38346.0
sg23
I00
sg24
F0.0
sg25
F0.0
sg26
g44
sg27
g45
sg28
F0.0
sg29
F0.0
sg30
F2151.0
sg31
I00
sg32
g46
sg33
I3
sg34
F0.0
ssS'BUTTS ROBERT H'
p220
(dp221
g3
g37
sg4
F0.0
sg5
F1346582.0
sg6
g38
sg7
F9410.0
sg8
F1689201.0
sg9
g39
sg10
I00
sg11
F175000.0
sg12
S'bob.butts@enron.com'
p222
sg14
g41
sg15
F0.3101326172487082
sg16
F-75000.0
sg17
F0.0
sg18
g42
sg19
F0.0
sg20
g43
sg21
F150656.0
sg22
F0.0
sg23
I00
sg24
F750000.0
sg25
F417619.0
sg26
g44
sg27
g45
sg28
F417619.0
sg29
F261516.0
sg30
F1271582.0
sg31
I00
sg32
g46
sg33
I6
sg34
F0.0
ssS'OLSON CINDY K'
p223
(dp224
g3
F1184.0
sg4
F77716.0
sg5
F1321557.0
sg6
F0.28846153846153844
sg7
F63791.0
sg8
F3928320.0
sg9
F35.0
sg10
I00
sg11
F100000.0
sg12
S'cindy.olson@enron.com'
p225
sg14
F20.0
sg15
F1.9724938084395907
sg16
F0.0
sg17
F0.0
sg18
F856.0
sg19
F0.0
sg20
F52.0
sg21
F972.0
sg22
F0.0
sg23
I00
sg24
F750000.0
sg25
F2606763.0
sg26
F1236.0
sg27
F15.0
sg28
F969729.0
sg29
F329078.0
sg30
F1321557.0
sg31
I00
sg32
F0.016891891891891893
sg33
I6
sg34
F1637034.0
ssS'MCDONALD REBECCA'
p226
(dp227
g3
F894.0
sg4
F0.0
sg5
F0.0
sg6
F0.07692307692307693
sg7
F0.0
sg8
F1691366.0
sg9
F55.0
sg10
I00
sg11
F0.0
sg12
S'rebecca.mcdonald@enron.com'
p228
sg14
F54.0
sg15
g53
sg16
F0.0
sg17
F0.0
sg18
F720.0
sg19
F0.0
sg20
F13.0
sg21
F0.0
sg22
F0.0
sg23
I00
sg24
F0.0
sg25
F1691366.0
sg26
F907.0
sg27
F1.0
sg28
F934065.0
sg29
F0.0
sg30
F0.0
sg31
I00
sg32
F0.06040268456375839
sg33
I0
sg34
F757301.0
ssS'CUMBERLAND MICHAEL S'
p229
(dp230
g3
g37
sg4
F0.0
sg5
F807956.0
sg6
g38
sg7
F22344.0
sg8
F1015896.0
sg9
g39
sg10
I00
sg11
F275000.0
sg12
g40
sg14
g41
sg15
F0.2573655001014907
sg16
F0.0
sg17
F0.0
sg18
g42
sg19
F0.0
sg20
g43
sg21
F713.0
sg22
F0.0
sg23
I00
sg24
F325000.0
sg25
F207940.0
sg26
g44
sg27
g45
sg28
F207940.0
sg29
F184899.0
sg30
F807956.0
sg31
I00
sg32
g46
sg33
I5
sg34
F0.0
ssS'GAHN ROBERT S'
p231
(dp232
g3
g37
sg4
F73122.0
sg5
F901627.0
sg6
g38
sg7
F50080.0
sg8
F1219192.0
sg9
g39
sg10
I00
sg11
F0.0
sg12
g40
sg14
g41
sg15
F0.3533689652151056
sg16
F-1042.0
sg17
F0.0
sg18
g42
sg19
F0.0
sg20
g43
sg21
F76547.0
sg22
F0.0
sg23
I00
sg24
F509870.0
sg25
F318607.0
sg26
g44
sg27
g45
sg28
F235370.0
sg29
F192008.0
sg30
F900585.0
sg31
I00
sg32
g46
sg33
I6
sg34
F83237.0
ssS'BADUM JAMES P'
p233
(dp234
g3
g37
sg4
F178980.0
sg5
F182466.0
sg6
g38
sg7
F3486.0
sg8
F440283.0
sg9
g39
sg10
I00
sg11
F0.0
sg12
g40
sg14
g41
sg15
F1.412959126631811
sg16
F0.0
sg17
F0.0
sg18
g42
sg19
F0.0
sg20
g43
sg21
F0.0
sg22
F0.0
sg23
I00
sg24
F0.0
sg25
F257817.0
sg26
g44
sg27
g45
sg28
F0.0
sg29
F0.0
sg30
F182466.0
sg31
I00
sg32
g46
sg33
I2
sg34
F257817.0
ssS'HERMANN ROBERT J'
p235
(dp236
g3
g37
sg4
F0.0
sg5
F1577461.0
sg6
g38
sg7
F48357.0
sg8
F1965593.0
sg9
g39
sg10
I00
sg11
F150000.0
sg12
S'robert.hermann@enron.com'
p237
sg14
g41
sg15
F0.4235489815596075
sg16
F-280000.0
sg17
F0.0
sg18
g42
sg19
F0.0
sg20
g43
sg21
F416441.0
sg22
F0.0
sg23
I00
sg24
F700000.0
sg25
F668132.0
sg26
g44
sg27
g45
sg28
F480632.0
sg29
F262663.0
sg30
F1297461.0
sg31
I00
sg32
g46
sg33
I6
sg34
F187500.0
ssS'SCRIMSHAW MATTHEW'
p238
(dp239
g3
g37
sg4
F0.0
sg5
F0.0
sg6
g38
sg7
F0.0
sg8
F759557.0
sg9
g39
sg10
I00
sg11
F0.0
sg12
S'matthew.scrimshaw@enron.com'
p240
sg14
g41
sg15
g53
sg16
F0.0
sg17
F0.0
sg18
g42
sg19
F0.0
sg20
g43
sg21
F0.0
sg22
F0.0
sg23
I00
sg24
F0.0
sg25
F759557.0
sg26
g44
sg27
g45
sg28
F0.0
sg29
F0.0
sg30
F0.0
sg31
I00
sg32
g46
sg33
I0
sg34
F759557.0
ssS'GATHMANN WILLIAM D'
p241
(dp242
g3
g37
sg4
F0.0
sg5
F0.0
sg6
g38
sg7
F0.0
sg8
F1945360.0
sg9
g39
sg10
I00
sg11
F0.0
sg12
g40
sg14
g41
sg15
g53
sg16
F0.0
sg17
F-72419.0
sg18
g42
sg19
F0.0
sg20
g43
sg21
F0.0
sg22
F0.0
sg23
I00
sg24
F0.0
sg25
F1945360.0
sg26
g44
sg27
g45
sg28
F264013.0
sg29
F0.0
sg30
F0.0
sg31
I00
sg32
g46
sg33
I0
sg34
F1753766.0
ssS'HAEDICKE MARK E'
p243
(dp244
g3
F4009.0
sg4
F2157527.0
sg5
F4793549.0
sg6
F0.03142709943328181
sg7
F76169.0
sg8
F4662159.0
sg9
F241.0
sg10
I00
sg11
F983346.0
sg12
S'mark.haedicke@enron.com'
p245
sg14
F180.0
sg15
F0.16753641195698635
sg16
F-934484.0
sg17
F-329825.0
sg18
F1847.0
sg19
F0.0
sg20
F1941.0
sg21
F52382.0
sg22
F0.0
sg23
I00
sg24
F1150000.0
sg25
F803094.0
sg26
F5950.0
sg27
F61.0
sg28
F524169.0
sg29
F374125.0
sg30
F3859065.0
sg31
I00
sg32
F0.04489897730107259
sg33
I7
sg34
F608750.0
ssS'BOWEN JR RAYMOND M'
p246
(dp247
g3
F1858.0
sg4
F0.0
sg5
F2670422.0
sg6
F0.5555555555555556
sg7
F65907.0
sg8
F2921644.0
sg9
F155.0
sg10
I01
sg11
F974293.0
sg12
S'raymond.bowen@enron.com'
p248
sg14
F140.0
sg15
F0.09438770351652286
sg16
F-833.0
sg17
F0.0
sg18
F1593.0
sg19
F0.0
sg20
F27.0
sg21
F1621.0
sg22
F0.0
sg23
I00
sg24
F1350000.0
sg25
F252055.0
sg26
F1885.0
sg27
F15.0
sg28
F252055.0
sg29
F278601.0
sg30
F2669589.0
sg31
I00
sg32
F0.07534983853606028
sg33
I6
sg34
F0.0
ssS'GILLIS JOHN'
p249
(dp250
g3
g37
sg4
F0.0
sg5
F0.0
sg6
g38
sg7
F0.0
sg8
F85641.0
sg9
g39
sg10
I00
sg11
F0.0
sg12
g40
sg14
g41
sg15
g53
sg16
F0.0
sg17
F0.0
sg18
g42
sg19
F0.0
sg20
g43
sg21
F0.0
sg22
F0.0
sg23
I00
sg24
F0.0
sg25
F85641.0
sg26
g44
sg27
g45
sg28
F75838.0
sg29
F0.0
sg30
F0.0
sg31
I00
sg32
g46
sg33
I0
sg34
F9803.0
ssS'FITZGERALD JAY L'
p251
(dp252
g3
F936.0
sg4
F0.0
sg5
F1414857.0
sg6
F0.5
sg7
F23870.0
sg8
F3036093.0
sg9
F9.0
sg10
I00
sg11
F556416.0
sg12
S'jay.fitzgerald@enron.com'
p253
sg14
F1.0
sg15
F1.145865624582555
sg16
F0.0
sg17
F0.0
sg18
F723.0
sg19
F0.0
sg20
F16.0
sg21
F285414.0
sg22
F0.0
sg23
I00
sg24
F350000.0
sg25
F1621236.0
sg26
F952.0
sg27
F8.0
sg28
F956775.0
sg29
F199157.0
sg30
F1414857.0
sg31
I00
sg32
F0.0010683760683760685
sg33
I5
sg34
F664461.0
ssS'MORAN MICHAEL P'
p254
(dp255
g3
F672.0
sg4
F0.0
sg5
F0.0
sg6
F0.0
sg7
F0.0
sg8
F221141.0
sg9
F0.0
sg10
I00
sg11
F0.0
sg12
S'michael.moran@enron.com'
p256
sg14
F0.0
sg15
g53
sg16
F0.0
sg17
F0.0
sg18
F127.0
sg19
F0.0
sg20
F19.0
sg21
F0.0
sg22
F0.0
sg23
I00
sg24
F0.0
sg25
F221141.0
sg26
F691.0
sg27
F0.0
sg28
F161602.0
sg29
F0.0
sg30
F0.0
sg31
I00
sg32
F0.0
sg33
I0
sg34
F59539.0
ssS'REDMOND BRIAN L'
p257
(dp258
g3
F1671.0
sg4
F0.0
sg5
F111529.0
sg6
F0.22171945701357465
sg7
F14689.0
sg8
F8001853.0
sg9
F253.0
sg10
I00
sg11
F0.0
sg12
S'brian.redmond@enron.com'
p259
sg14
F204.0
sg15
F70.74683714549579
sg16
F0.0
sg17
F0.0
sg18
F1063.0
sg19
F0.0
sg20
F221.0
sg21
F0.0
sg22
F0.0
sg23
I00
sg24
F0.0
sg25
F7890324.0
sg26
F1892.0
sg27
F49.0
sg28
F381285.0
sg29
F96840.0
sg30
F111529.0
sg31
I00
sg32
F0.12208258527827648
sg33
I2
sg34
F7509039.0
ssS'BAZELIDES PHILIP J'
p260
(dp261
g3
g37
sg4
F684694.0
sg5
F860136.0
sg6
g38
sg7
F0.0
sg8
F2459777.0
sg9
g39
sg10
I00
sg11
F93750.0
sg12
g40
sg14
g41
sg15
F1.8597535738534372
sg16
F0.0
sg17
F0.0
sg18
g42
sg19
F0.0
sg20
g43
sg21
F874.0
sg22
F0.0
sg23
I00
sg24
F0.0
sg25
F1599641.0
sg26
g44
sg27
g45
sg28
F0.0
sg29
F80818.0
sg30
F860136.0
sg31
I00
sg32
g46
sg33
I4
sg34
F1599641.0
ssS'BELDEN TIMOTHY N'
p262
(dp263
g3
F7991.0
sg4
F2144013.0
sg5
F7836064.0
sg6
F0.2231404958677686
sg7
F17355.0
sg8
F6612335.0
sg9
F336.0
sg10
I01
sg11
F0.0
sg12
S'tim.belden@enron.com'
p264
sg14
F228.0
sg15
F0.14174271675167532
sg16
F-2334434.0
sg17
F0.0
sg18
F5521.0
sg19
F0.0
sg20
F484.0
sg21
F210698.0
sg22
F0.0
sg23
I00
sg24
F5249999.0
sg25
F1110705.0
sg26
F8475.0
sg27
F108.0
sg28
F157569.0
sg29
F213999.0
sg30
F5501630.0
sg31
I00
sg32
F0.028532098610937303
sg33
I6
sg34
F953136.0
ssS'DURAN WILLIAM D'
p265
(dp266
g3
F904.0
sg4
F0.0
sg5
F2093263.0
sg6
F0.25
sg7
F25785.0
sg8
F3734173.0
sg9
F109.0
sg10
I00
sg11
F1105218.0
sg12
S'w.duran@enron.com'
p267
sg14
F106.0
sg15
F0.7839005418812638
sg16
F0.0
sg17
F0.0
sg18
F599.0
sg19
F0.0
sg20
F12.0
sg21
F1568.0
sg22
F0.0
sg23
I00
sg24
F750000.0
sg25
F1640910.0
sg26
F916.0
sg27
F3.0
sg28
F189041.0
sg29
F210692.0
sg30
F2093263.0
sg31
I00
sg32
F0.1172566371681416
sg33
I5
sg34
F1451869.0
ssS'THORN TERENCE H'
p268
(dp269
g3
F266.0
sg4
F16586.0
sg5
F911453.0
sg6
F0.0
sg7
F46145.0
sg8
F5729249.0
sg9
F0.0
sg10
I00
sg11
F200000.0
sg12
S'terence.thorn@enron.com'
p270
sg14
F0.0
sg15
F5.285841398294811
sg16
F0.0
sg17
F0.0
sg18
F73.0
sg19
F0.0
sg20
F41.0
sg21
F426629.0
sg22
F0.0
sg23
I00
sg24
F0.0
sg25
F4817796.0
sg26
F307.0
sg27
F0.0
sg28
F365320.0
sg29
F222093.0
sg30
F911453.0
sg31
I00
sg32
F0.0
sg33
I5
sg34
F4452476.0
ssS'FASTOW ANDREW S'
p271
(dp272
g3
g37
sg4
F0.0
sg5
F3810138.0
sg6
g38
sg7
F55921.0
sg8
F4218495.0
sg9
g39
sg10
I01
sg11
F1736055.0
sg12
S'andrew.fastow@enron.com'
p273
sg14
g41
sg15
F0.47095721992221806
sg16
F-1386055.0
sg17
F0.0
sg18
g42
sg19
F0.0
sg20
g43
sg21
F277464.0
sg22
F0.0
sg23
I00
sg24
F1300000.0
sg25
F1794412.0
sg26
g44
sg27
g45
sg28
F1794412.0
sg29
F440698.0
sg30
F2424083.0
sg31
I00
sg32
g46
sg33
I6
sg34
F0.0
ssS'FOY JOE'
p274
(dp275
g3
F57.0
sg4
F181755.0
sg5
F181755.0
sg6
F0.0
sg7
F0.0
sg8
F525189.0
sg9
F0.0
sg10
I00
sg11
F0.0
sg12
S'tracy.foy@enron.com'
p276
sg14
F0.0
sg15
F1.8895436164067014
sg16
F0.0
sg17
F0.0
sg18
F2.0
sg19
F0.0
sg20
F13.0
sg21
F0.0
sg22
F0.0
sg23
I00
sg24
F0.0
sg25
F343434.0
sg26
F70.0
sg27
F0.0
sg28
F0.0
sg29
F0.0
sg30
F181755.0
sg31
I00
sg32
F0.0
sg33
I1
sg34
F343434.0
ssS'CALGER CHRISTOPHER F'
p277
(dp278
g3
F2598.0
sg4
F0.0
sg5
F1901797.0
sg6
F0.1736111111111111
sg7
F35818.0
sg8
F1765324.0
sg9
F224.0
sg10
I01
sg11
F375304.0
sg12
S'christopher.calger@enron.com'
p279
sg14
F199.0
sg15
F0.06626732506150762
sg16
F-262500.0
sg17
F0.0
sg18
F2188.0
sg19
F0.0
sg20
F144.0
sg21
F486.0
sg22
F0.0
sg23
I00
sg24
F1250000.0
sg25
F126027.0
sg26
F2742.0
sg27
F25.0
sg28
F126027.0
sg29
F240189.0
sg30
F1639297.0
sg31
I00
sg32
F0.07659738260200154
sg33
I6
sg34
F0.0
ssS'RICE KENNETH D'
p280
(dp281
g3
F905.0
sg4
F0.0
sg5
F4009436.0
sg6
F0.2222222222222222
sg7
F46950.0
sg8
F23047589.0
sg9
F46.0
sg10
I01
sg11
F1617011.0
sg12
S'ken.rice@enron.com'
p282
sg14
F42.0
sg15
F5.6223715754535055
sg16
F-3504386.0
sg17
F0.0
sg18
F864.0
sg19
F0.0
sg20
F18.0
sg21
F174839.0
sg22
F0.0
sg23
I00
sg24
F1750000.0
sg25
F22542539.0
sg26
F923.0
sg27
F4.0
sg28
F2748364.0
sg29
F420636.0
sg30
F505050.0
sg31
I00
sg32
F0.04640883977900553
sg33
I6
sg34
F19794175.0
ssS'LOCKHART EUGENE E'
p283
(dp284
g3
g37
sg4
F0.0
sg5
F0.0
sg6
g38
sg7
F0.0
sg8
F0.0
sg9
g39
sg10
I00
sg11
F0.0
sg12
g40
sg14
g41
sg15
g53
sg16
F0.0
sg17
F0.0
sg18
g42
sg19
F0.0
sg20
g43
sg21
F0.0
sg22
F0.0
sg23
I00
sg24
F0.0
sg25
F0.0
sg26
g44
sg27
g45
sg28
F0.0
sg29
F0.0
sg30
F0.0
sg31
I00
sg32
g46
sg33
I0
sg34
F0.0
ssS'COX DAVID'
p285
(dp286
g3
F102.0
sg4
F0.0
sg5
F1142643.0
sg6
F0.12121212121212122
sg7
F27861.0
sg8
F1597026.0
sg9
F4.0
sg10
I00
sg11
F0.0
sg12
S'chip.cox@enron.com'
p287
sg14
F0.0
sg15
F0.4337601508082577
sg16
F-41250.0
sg17
F0.0
sg18
F71.0
sg19
F0.0
sg20
F33.0
sg21
F494.0
sg22
F0.0
sg23
I00
sg24
F800000.0
sg25
F495633.0
sg26
F135.0
sg27
F4.0
sg28
F378082.0
sg29
F314288.0
sg30
F1101393.0
sg31
I00
sg32
F0.0
sg33
I5
sg34
F117551.0
ssS'OVERDYKE JR JERE C'
p288
(dp289
g3
g37
sg4
F0.0
sg5
F249787.0
sg6
g38
sg7
F18834.0
sg8
F7557381.0
sg9
g39
sg10
I00
sg11
F135836.0
sg12
S'jere.overdyke@enron.com'
p290
sg14
g41
sg15
F29.25530151689239
sg16
F0.0
sg17
F0.0
sg18
g42
sg19
F0.0
sg20
g43
sg21
F176.0
sg22
F0.0
sg23
I00
sg24
F0.0
sg25
F7307594.0
sg26
g44
sg27
g45
sg28
F2041016.0
sg29
F94941.0
sg30
F249787.0
sg31
I00
sg32
g46
sg33
I4
sg34
F5266578.0
ssS'PEREIRA PAULO V. FERRAZ'
p291
(dp292
g3
g37
sg4
F0.0
sg5
F129192.0
sg6
g38
sg7
F27942.0
sg8
F27942.0
sg9
g39
sg10
I00
sg11
F0.0
sg12
g40
sg14
g41
sg15
F0.0
sg16
F-101250.0
sg17
F0.0
sg18
g42
sg19
F0.0
sg20
g43
sg21
F0.0
sg22
F101250.0
sg23
I00
sg24
F0.0
sg25
F0.0
sg26
g44
sg27
g45
sg28
F0.0
sg29
F0.0
sg30
F27942.0
sg31
I00
sg32
g46
sg33
I3
sg34
F0.0
ssS'STABLER FRANK'
p293
(dp294
g3
g37
sg4
F0.0
sg5
F1112087.0
sg6
g38
sg7
F16514.0
sg8
F1623821.0
sg9
g39
sg10
I00
sg11
F0.0
sg12
S'frank.stabler@enron.com'
p295
sg14
g41
sg15
F0.46015644459471244
sg16
F0.0
sg17
F0.0
sg18
g42
sg19
F0.0
sg20
g43
sg21
F356071.0
sg22
F0.0
sg23
I00
sg24
F500000.0
sg25
F511734.0
sg26
g44
sg27
g45
sg28
F511734.0
sg29
F239502.0
sg30
F1112087.0
sg31
I00
sg32
g46
sg33
I4
sg34
F0.0
ssS'SKILLING JEFFREY K'
p296
(dp297
g3
F3627.0
sg4
F0.0
sg5
F8682716.0
sg6
F0.2777777777777778
sg7
F29336.0
sg8
F34776388.0
sg9
F118.0
sg10
I01
sg11
F1920000.0
sg12
S'jeff.skilling@enron.com'
p298
sg14
F88.0
sg15
F3.0052430598904767
sg16
F0.0
sg17
F0.0
sg18
F2042.0
sg19
F0.0
sg20
F108.0
sg21
F22122.0
sg22
F0.0
sg23
I00
sg24
F5600000.0
sg25
F26093672.0
sg26
F3735.0
sg27
F30.0
sg28
F6843672.0
sg29
F1111258.0
sg30
F8682716.0
sg31
I00
sg32
F0.0242624758753791
sg33
I5
sg34
F19250000.0
ssS'BLAKE JR. NORMAN P'
p299
(dp300
g3
g37
sg4
F0.0
sg5
F115063.0
sg6
g38
sg7
F1279.0
sg8
F1279.0
sg9
g39
sg10
I00
sg11
F0.0
sg12
g40
sg14
g41
sg15
F0.0
sg16
F-113784.0
sg17
F0.0
sg18
g42
sg19
F0.0
sg20
g43
sg21
F0.0
sg22
F113784.0
sg23
I00
sg24
F0.0
sg25
F0.0
sg26
g44
sg27
g45
sg28
F0.0
sg29
F0.0
sg30
F1279.0
sg31
I00
sg32
g46
sg33
I3
sg34
F0.0
ssS'SHERRICK JEFFREY B'
p301
(dp302
g3
F613.0
sg4
F0.0
sg5
F0.0
sg6
F0.72
sg7
F0.0
sg8
F1832468.0
sg9
F57.0
sg10
I00
sg11
F0.0
sg12
S'jeffrey.sherrick@enron.com'
p303
sg14
F39.0
sg15
g53
sg16
F0.0
sg17
F0.0
sg18
F583.0
sg19
F0.0
sg20
F25.0
sg21
F0.0
sg22
F0.0
sg23
I00
sg24
F0.0
sg25
F1832468.0
sg26
F638.0
sg27
F18.0
sg28
F405999.0
sg29
F0.0
sg30
F0.0
sg31
I00
sg32
F0.0636215334420881
sg33
I0
sg34
F1426469.0
ssS'PRENTICE JAMES'
p304
(dp305
g3
g37
sg4
F564348.0
sg5
F564348.0
sg6
g38
sg7
F0.0
sg8
F1659388.0
sg9
g39
sg10
I00
sg11
F0.0
sg12
S'james.prentice@enron.com'
p306
sg14
g41
sg15
F1.940363038408925
sg16
F0.0
sg17
F0.0
sg18
g42
sg19
F0.0
sg20
g43
sg21
F0.0
sg22
F0.0
sg23
I00
sg24
F0.0
sg25
F1095040.0
sg26
g44
sg27
g45
sg28
F208809.0
sg29
F0.0
sg30
F564348.0
sg31
I00
sg32
g46
sg33
I1
sg34
F886231.0
ssS'GRAY RODNEY'
p307
(dp308
g3
g37
sg4
F93585.0
sg5
F1146658.0
sg6
g38
sg7
F0.0
sg8
F1146658.0
sg9
g39
sg10
I00
sg11
F365625.0
sg12
g40
sg14
g41
sg15
F0.0
sg16
F0.0
sg17
F0.0
sg18
g42
sg19
F0.0
sg20
g43
sg21
F680833.0
sg22
F0.0
sg23
I00
sg24
F0.0
sg25
F0.0
sg26
g44
sg27
g45
sg28
F0.0
sg29
F6615.0
sg30
F1146658.0
sg31
I00
sg32
g46
sg33
I4
sg34
F0.0
ssS'PICKERING MARK R'
p309
(dp310
g3
F898.0
sg4
F0.0
sg5
F1386690.0
sg6
F0.0
sg7
F31653.0
sg8
F1415488.0
sg9
F7.0
sg10
I00
sg11
F0.0
sg12
S'mark.pickering@enron.com'
p311
sg14
F7.0
sg15
F0.020767439009439746
sg16
F0.0
sg17
F0.0
sg18
F728.0
sg19
F400000.0
sg20
F67.0
sg21
F0.0
sg22
F0.0
sg23
I00
sg24
F300000.0
sg25
F28798.0
sg26
F965.0
sg27
F0.0
sg28
F0.0
sg29
F655037.0
sg30
F1386690.0
sg31
I00
sg32
F0.0077951002227171495
sg33
I4
sg34
F28798.0
ssS'THE TRAVEL AGENCY IN THE PARK'
p312
(dp313
g3
g37
sg4
F0.0
sg5
F362096.0
sg6
g38
sg7
F0.0
sg8
F362096.0
sg9
g39
sg10
I00
sg11
F0.0
sg12
g40
sg14
g41
sg15
F0.0
sg16
F0.0
sg17
F0.0
sg18
g42
sg19
F0.0
sg20
g43
sg21
F362096.0
sg22
F0.0
sg23
I00
sg24
F0.0
sg25
F0.0
sg26
g44
sg27
g45
sg28
F0.0
sg29
F0.0
sg30
F362096.0
sg31
I00
sg32
g46
sg33
I1
sg34
F0.0
ssS'NOLES JAMES L'
p314
(dp315
g3
g37
sg4
F774401.0
sg5
F774401.0
sg6
g38
sg7
F0.0
sg8
F1143106.0
sg9
g39
sg10
I00
sg11
F0.0
sg12
g40
sg14
g41
sg15
F0.47611637898194864
sg16
F0.0
sg17
F-94556.0
sg18
g42
sg19
F0.0
sg20
g43
sg21
F0.0
sg22
F0.0
sg23
I00
sg24
F0.0
sg25
F368705.0
sg26
g44
sg27
g45
sg28
F463261.0
sg29
F0.0
sg30
F774401.0
sg31
I00
sg32
g46
sg33
I1
sg34
F0.0
ssS'FOWLER PEGGY'
p316
(dp317
g3
F517.0
sg4
F0.0
sg5
F0.0
sg6
F0.0
sg7
F0.0
sg8
F1884748.0
sg9
F0.0
sg10
I00
sg11
F0.0
sg12
S'kulvinder.fowler@enron.com'
p318
sg14
F0.0
sg15
g53
sg16
F0.0
sg17
F0.0
sg18
F10.0
sg19
F0.0
sg20
F36.0
sg21
F0.0
sg22
F0.0
sg23
I00
sg24
F0.0
sg25
F1884748.0
sg26
F553.0
sg27
F0.0
sg28
F560170.0
sg29
F0.0
sg30
F0.0
sg31
I00
sg32
F0.0
sg33
I0
sg34
F1324578.0
ssS'WASAFF GEORGE'
p319
(dp320
g3
F400.0
sg4
F831299.0
sg5
F1617720.0
sg6
F0.23333333333333334
sg7
F0.0
sg8
F3090822.0
sg9
F29.0
sg10
I00
sg11
F200000.0
sg12
S'george.wasaff@enron.com'
p321
sg14
F22.0
sg15
F1.2711884627747694
sg16
F-583325.0
sg17
F0.0
sg18
F337.0
sg19
F0.0
sg20
F30.0
sg21
F1425.0
sg22
F0.0
sg23
I00
sg24
F325000.0
sg25
F2056427.0
sg26
F430.0
sg27
F7.0
sg28
F388167.0
sg29
F259996.0
sg30
F1034395.0
sg31
I00
sg32
F0.055
sg33
I6
sg34
F1668260.0
ssS'WHITE JR THOMAS E'
p322
(dp323
g3
g37
sg4
F0.0
sg5
F1934359.0
sg6
g38
sg7
F81353.0
sg8
F17078482.0
sg9
g39
sg10
I00
sg11
F0.0
sg12
S'thomas.white@enron.com'
p324
sg14
g41
sg15
F7.829013642245313
sg16
F0.0
sg17
F0.0
sg18
g42
sg19
F0.0
sg20
g43
sg21
F1085463.0
sg22
F0.0
sg23
I00
sg24
F450000.0
sg25
F15144123.0
sg26
g44
sg27
g45
sg28
F13847074.0
sg29
F317543.0
sg30
F1934359.0
sg31
I00
sg32
g46
sg33
I4
sg34
F1297049.0
ssS'CHRISTODOULOU DIOMEDES'
p325
(dp326
g3
g37
sg4
F0.0
sg5
F0.0
sg6
g38
sg7
F0.0
sg8
F6077885.0
sg9
g39
sg10
I00
sg11
F0.0
sg12
S'diomedes.christodoulou@enron.com'
p327
sg14
g41
sg15
g53
sg16
F0.0
sg17
F0.0
sg18
g42
sg19
F0.0
sg20
g43
sg21
F0.0
sg22
F0.0
sg23
I00
sg24
F0.0
sg25
F6077885.0
sg26
g44
sg27
g45
sg28
F950730.0
sg29
F0.0
sg30
F0.0
sg31
I00
sg32
g46
sg33
I0
sg34
F5127155.0
ssS'ALLEN PHILLIP K'
p328
(dp329
g3
F2902.0
sg4
F2869717.0
sg5
F7565497.0
sg6
F0.029612756264236904
sg7
F13868.0
sg8
F6213983.0
sg9
F112.0
sg10
I00
sg11
F304805.0
sg12
S'phillip.allen@enron.com'
p330
sg14
F47.0
sg15
F0.22860903916821326
sg16
F-3081055.0
sg17
F-126027.0
sg18
F1407.0
sg19
F0.0
sg20
F2195.0
sg21
F152.0
sg22
F0.0
sg23
I00
sg24
F4175000.0
sg25
F1729541.0
sg26
F5097.0
sg27
F65.0
sg28
F126027.0
sg29
F201955.0
sg30
F4484442.0
sg31
I00
sg32
F0.016195727084769126
sg33
I7
sg34
F1729541.0
ssS'SHARP VICTORIA T'
p331
(dp332
g3
F3136.0
sg4
F187469.0
sg5
F1576511.0
sg6
F0.04411764705882353
sg7
F116337.0
sg8
F2070647.0
sg9
F30.0
sg10
I00
sg11
F422158.0
sg12
S'vicki.sharp@enron.com'
p333
sg14
F24.0
sg15
F0.3134364428792441
sg16
F0.0
sg17
F0.0
sg18
F2477.0
sg19
F0.0
sg20
F136.0
sg21
F2401.0
sg22
F0.0
sg23
I00
sg24
F600000.0
sg25
F494136.0
sg26
F3272.0
sg27
F6.0
sg28
F213063.0
sg29
F248146.0
sg30
F1576511.0
sg31
I00
sg32
F0.007653061224489796
sg33
I6
sg34
F281073.0
ssS'JAEDICKE ROBERT'
p334
(dp335
g3
g37
sg4
F0.0
sg5
F108750.0
sg6
g38
sg7
F0.0
sg8
F515500.0
sg9
g39
sg10
I00
sg11
F0.0
sg12
g40
sg14
g41
sg15
F3.9701149425287356
sg16
F-25000.0
sg17
F-44093.0
sg18
g42
sg19
F0.0
sg20
g43
sg21
F0.0
sg22
F108750.0
sg23
I00
sg24
F0.0
sg25
F431750.0
sg26
g44
sg27
g45
sg28
F44093.0
sg29
F0.0
sg30
F83750.0
sg31
I00
sg32
g46
sg33
I2
sg34
F431750.0
ssS'WINOKUR JR. HERBERT S'
p336
(dp337
g3
g37
sg4
F0.0
sg5
F109992.0
sg6
g38
sg7
F1413.0
sg8
F84992.0
sg9
g39
sg10
I00
sg11
F0.0
sg12
g40
sg14
g41
sg15
F0.0
sg16
F-25000.0
sg17
F0.0
sg18
g42
sg19
F0.0
sg20
g43
sg21
F0.0
sg22
F108579.0
sg23
I00
sg24
F0.0
sg25
F0.0
sg26
g44
sg27
g45
sg28
F0.0
sg29
F0.0
sg30
F84992.0
sg31
I00
sg32
g46
sg33
I3
sg34
F0.0
ssS'BROWN MICHAEL'
p338
(dp339
g3
F1486.0
sg4
F0.0
sg5
F49288.0
sg6
F0.024390243902439025
sg7
F49288.0
sg8
F49288.0
sg9
F14.0
sg10
I00
sg11
F0.0
sg12
S'michael.brown@enron.com'
p340
sg14
F13.0
sg15
F0.0
sg16
F0.0
sg17
F0.0
sg18
F761.0
sg19
F0.0
sg20
F41.0
sg21
F0.0
sg22
F0.0
sg23
I00
sg24
F0.0
sg25
F0.0
sg26
F1527.0
sg27
F1.0
sg28
F0.0
sg29
F0.0
sg30
F49288.0
sg31
I00
sg32
F0.008748317631224764
sg33
I1
sg34
F0.0
ssS'MCCLELLAN GEORGE'
p341
(dp342
g3
F1744.0
sg4
F0.0
sg5
F1443763.0
sg6
F0.0
sg7
F228763.0
sg8
F2266624.0
sg9
F52.0
sg10
I00
sg11
F0.0
sg12
S'george.mcclellan@enron.com'
p343
sg14
F52.0
sg15
F0.6565211880343242
sg16
F-125000.0
sg17
F0.0
sg18
F1469.0
sg19
F0.0
sg20
F49.0
sg21
F51587.0
sg22
F0.0
sg23
I00
sg24
F900000.0
sg25
F947861.0
sg26
F1793.0
sg27
F0.0
sg28
F441096.0
sg29
F263413.0
sg30
F1318763.0
sg31
I00
sg32
F0.02981651376146789
sg33
I5
sg34
F506765.0
ssS'HUGHES JAMES A'
p344
(dp345
g3
F719.0
sg4
F0.0
sg5
F0.0
sg6
F0.14705882352941177
sg7
F0.0
sg8
F1118394.0
sg9
F40.0
sg10
I00
sg11
F0.0
sg12
S'james.hughes@enron.com'
p346
sg14
F35.0
sg15
g53
sg16
F0.0
sg17
F0.0
sg18
F589.0
sg19
F0.0
sg20
F34.0
sg21
F0.0
sg22
F0.0
sg23
I00
sg24
F0.0
sg25
F1118394.0
sg26
F753.0
sg27
F5.0
sg28
F363428.0
sg29
F0.0
sg30
F0.0
sg31
I00
sg32
F0.048678720445062586
sg33
I0
sg34
F754966.0
ssS'REYNOLDS LAWRENCE'
p347
(dp348
g3
g37
sg4
F51365.0
sg5
F594475.0
sg6
g38
sg7
F8409.0
sg8
F4616366.0
sg9
g39
sg10
I00
sg11
F156250.0
sg12
g40
sg14
g41
sg15
F7.101881492072837
sg16
F-200000.0
sg17
F-140264.0
sg18
g42
sg19
F0.0
sg20
g43
sg21
F202052.0
sg22
F0.0
sg23
I00
sg24
F100000.0
sg25
F4221891.0
sg26
g44
sg27
g45
sg28
F201483.0
sg29
F76399.0
sg30
F394475.0
sg31
I00
sg32
g46
sg33
I7
sg34
F4160672.0
ssS'DIMICHELE RICHARD G'
p349
(dp350
g3
g37
sg4
F0.0
sg5
F2368151.0
sg6
g38
sg7
F35812.0
sg8
F10685933.0
sg9
g39
sg10
I00
sg11
F694862.0
sg12
S'richard.dimichele@enron.com'
p351
sg14
g41
sg15
F3.5123528862813225
sg16
F0.0
sg17
F0.0
sg18
g42
sg19
F0.0
sg20
g43
sg21
F374689.0
sg22
F0.0
sg23
I00
sg24
F1000000.0
sg25
F8317782.0
sg26
g44
sg27
g45
sg28
F126027.0
sg29
F262788.0
sg30
F2368151.0
sg31
I00
sg32
g46
sg33
I5
sg34
F8191755.0
ssS'BHATNAGAR SANJAY'
p352
(dp353
g3
F523.0
sg4
F0.0
sg5
F137864.0
sg6
F0.034482758620689655
sg7
F137864.0
sg8
F15594154.0
sg9
F1.0
sg10
I00
sg11
F0.0
sg12
S'sanjay.bhatnagar@enron.com'
p354
sg14
F0.0
sg15
F112.11258921836013
sg16
F0.0
sg17
F2604490.0
sg18
F463.0
sg19
F0.0
sg20
F29.0
sg21
F0.0
sg22
F0.0
sg23
I00
sg24
F0.0
sg25
F15456290.0
sg26
F552.0
sg27
F1.0
sg28
F-2604490.0
sg29
F0.0
sg30
F137864.0
sg31
I00
sg32
F0.0
sg33
I1
sg34
F15456290.0
ssS'CARTER REBECCA C'
p355
(dp356
g3
F312.0
sg4
F0.0
sg5
F637349.0
sg6
F0.4666666666666667
sg7
F0.0
sg8
F477557.0
sg9
F36.0
sg10
I00
sg11
F75000.0
sg12
S'rebecca.carter@enron.com'
p357
sg14
F29.0
sg15
F0.0
sg16
F-159792.0
sg17
F-307301.0
sg18
F196.0
sg19
F0.0
sg20
F15.0
sg21
F540.0
sg22
F0.0
sg23
I00
sg24
F300000.0
sg25
F0.0
sg26
F327.0
sg27
F7.0
sg28
F307301.0
sg29
F261809.0
sg30
F477557.0
sg31
I00
sg32
F0.09294871794871795
sg33
I5
sg34
F0.0
ssS'BUCHANAN HAROLD G'
p358
(dp359
g3
F1088.0
sg4
F0.0
sg5
F1054637.0
sg6
F0.0
sg7
F600.0
sg8
F2069142.0
sg9
F0.0
sg10
I00
sg11
F304805.0
sg12
S'john.buchanan@enron.com'
p360
sg14
F0.0
sg15
F0.9619470964891238
sg16
F0.0
sg17
F0.0
sg18
F23.0
sg19
F0.0
sg20
F125.0
sg21
F1215.0
sg22
F0.0
sg23
I00
sg24
F500000.0
sg25
F1014505.0
sg26
F1213.0
sg27
F0.0
sg28
F189041.0
sg29
F248017.0
sg30
F1054637.0
sg31
I00
sg32
F0.0
sg33
I5
sg34
F825464.0
ssS'YEAP SOON'
p361
(dp362
g3
g37
sg4
F0.0
sg5
F55097.0
sg6
g38
sg7
F55097.0
sg8
F247855.0
sg9
g39
sg10
I00
sg11
F0.0
sg12
g40
sg14
g41
sg15
F3.4985207906056592
sg16
F0.0
sg17
F0.0
sg18
g42
sg19
F0.0
sg20
g43
sg21
F0.0
sg22
F0.0
sg23
I00
sg24
F0.0
sg25
F192758.0
sg26
g44
sg27
g45
sg28
F0.0
sg29
F0.0
sg30
F55097.0
sg31
I00
sg32
g46
sg33
I1
sg34
F192758.0
ssS'MURRAY JULIA H'
p363
(dp364
g3
F2192.0
sg4
F0.0
sg5
F812194.0
sg6
F0.044444444444444446
sg7
F57580.0
sg8
F1409655.0
sg9
F13.0
sg10
I00
sg11
F125000.0
sg12
S'julia.murray@enron.com'
p365
sg14
F11.0
sg15
F0.7356136588056548
sg16
F0.0
sg17
F0.0
sg18
F395.0
sg19
F0.0
sg20
F45.0
sg21
F330.0
sg22
F0.0
sg23
I00
sg24
F400000.0
sg25
F597461.0
sg26
F2237.0
sg27
F2.0
sg28
F196983.0
sg29
F229284.0
sg30
F812194.0
sg31
I00
sg32
F0.005018248175182482
sg33
I5
sg34
F400478.0
ssS'GARLAND C KEVIN'
p366
(dp367
g3
F209.0
sg4
F0.0
sg5
F1566469.0
sg6
F0.6136363636363636
sg7
F48405.0
sg8
F2462622.0
sg9
F37.0
sg10
I00
sg11
F375304.0
sg12
S'kevin.garland@enron.com'
p368
sg14
F10.0
sg15
F0.5720847332440029
sg16
F0.0
sg17
F0.0
sg18
F178.0
sg19
F0.0
sg20
F44.0
sg21
F60814.0
sg22
F0.0
sg23
I00
sg24
F850000.0
sg25
F896153.0
sg26
F253.0
sg27
F27.0
sg28
F259907.0
sg29
F231946.0
sg30
F1566469.0
sg31
I00
sg32
F0.04784688995215311
sg33
I5
sg34
F636246.0
ssS'DODSON KEITH'
p369
(dp370
g3
F176.0
sg4
F0.0
sg5
F319941.0
sg6
F0.21428571428571427
sg7
F28164.0
sg8
F319941.0
sg9
F13.0
sg10
I00
sg11
F0.0
sg12
S'keith.dodson@enron.com'
p371
sg14
F10.0
sg15
F0.0
sg16
F0.0
sg17
F0.0
sg18
F114.0
sg19
F0.0
sg20
F14.0
sg21
F774.0
sg22
F0.0
sg23
I00
sg24
F70000.0
sg25
F0.0
sg26
F190.0
sg27
F3.0
sg28
F0.0
sg29
F221003.0
sg30
F319941.0
sg31
I00
sg32
F0.056818181818181816
sg33
I4
sg34
F0.0
ssS'YEAGER F SCOTT'
p372
(dp373
g3
g37
sg4
F0.0
sg5
F360300.0
sg6
g38
sg7
F53947.0
sg8
F12245058.0
sg9
g39
sg10
I01
sg11
F0.0
sg12
S'scott.yeager@enron.com'
p374
sg14
g41
sg15
F32.98572855953372
sg16
F0.0
sg17
F0.0
sg18
g42
sg19
F0.0
sg20
g43
sg21
F147950.0
sg22
F0.0
sg23
I00
sg24
F0.0
sg25
F11884758.0
sg26
g44
sg27
g45
sg28
F3576206.0
sg29
F158403.0
sg30
F360300.0
sg31
I00
sg32
g46
sg33
I3
sg34
F8308552.0
ssS'HIRKO JOSEPH'
p375
(dp376
g3
g37
sg4
F10259.0
sg5
F91093.0
sg6
g38
sg7
F77978.0
sg8
F30857157.0
sg9
g39
sg10
I01
sg11
F0.0
sg12
S'joe.hirko@enron.com'
p377
sg14
g41
sg15
F337.7434490026676
sg16
F0.0
sg17
F0.0
sg18
g42
sg19
F0.0
sg20
g43
sg21
F2856.0
sg22
F0.0
sg23
I00
sg24
F0.0
sg25
F30766064.0
sg26
g44
sg27
g45
sg28
F0.0
sg29
F0.0
sg30
F91093.0
sg31
I00
sg32
g46
sg33
I3
sg34
F30766064.0
ssS'DIETRICH JANET R'
p378
(dp379
g3
F2572.0
sg4
F0.0
sg5
F1410464.0
sg6
F0.2222222222222222
sg7
F3475.0
sg8
F3275551.0
sg9
F319.0
sg10
I00
sg11
F556416.0
sg12
S'janet.dietrich@enron.com'
p380
sg14
F305.0
sg15
F1.3223215906254964
sg16
F0.0
sg17
F0.0
sg18
F1902.0
sg19
F0.0
sg20
F63.0
sg21
F473.0
sg22
F0.0
sg23
I00
sg24
F600000.0
sg25
F1865087.0
sg26
F2635.0
sg27
F14.0
sg28
F315068.0
sg29
F250100.0
sg30
F1410464.0
sg31
I00
sg32
F0.11858475894245724
sg33
I5
sg34
F1550019.0
ssS'DERRICK JR. JAMES V'
p381
(dp382
g3
F2181.0
sg4
F0.0
sg5
F1834981.0
sg6
F0.022002200220022004
sg7
F51124.0
sg8
F9382894.0
sg9
F84.0
sg10
I00
sg11
F484000.0
sg12
S'james.derrick@enron.com'
p383
sg14
F64.0
sg15
F4.813081443350095
sg16
F-1284000.0
sg17
F-1787380.0
sg18
F1401.0
sg19
F0.0
sg20
F909.0
sg21
F7482.0
sg22
F0.0
sg23
I00
sg24
F800000.0
sg25
F8831913.0
sg26
F3090.0
sg27
F20.0
sg28
F1787380.0
sg29
F492375.0
sg30
F550981.0
sg31
I00
sg32
F0.029344337459880788
sg33
I6
sg34
F8831913.0
ssS'FREVERT MARK A'
p384
(dp385
g3
F3275.0
sg4
F6426990.0
sg5
F20619541.0
sg6
F0.2857142857142857
sg7
F86987.0
sg8
F31874715.0
sg9
F248.0
sg10
I00
sg11
F1617011.0
sg12
S'mark.frevert@enron.com'
p386
sg14
F242.0
sg15
F0.7091421191189464
sg16
F-3367011.0
sg17
F0.0
sg18
F2979.0
sg19
F2000000.0
sg20
F21.0
sg21
F7427621.0
sg22
F0.0
sg23
I00
sg24
F2000000.0
sg25
F14622185.0
sg26
F3296.0
sg27
F6.0
sg28
F4188667.0
sg29
F1060932.0
sg30
F17252530.0
sg31
I00
sg32
F0.07389312977099237
sg33
I8
sg34
F10433518.0
ssS'PAI LOU L'
p387
(dp388
g3
g37
sg4
F0.0
sg5
F3123383.0
sg6
g38
sg7
F32047.0
sg8
F26941313.0
sg9
g39
sg10
I00
sg11
F0.0
sg12
S'lou.pai@enron.com'
p389
sg14
g41
sg15
F7.625683433635901
sg16
F0.0
sg17
F0.0
sg18
g42
sg19
F0.0
sg20
g43
sg21
F1829457.0
sg22
F0.0
sg23
I00
sg24
F1000000.0
sg25
F23817930.0
sg26
g44
sg27
g45
sg28
F8453763.0
sg29
F261879.0
sg30
F3123383.0
sg31
I00
sg32
g46
sg33
I4
sg34
F15364167.0
ssS'BAY FRANKLIN R'
p390
(dp391
g3
g37
sg4
F260455.0
sg5
F1029337.0
sg6
g38
sg7
F129142.0
sg8
F890710.0
sg9
g39
sg10
I00
sg11
F0.0
sg12
S'frank.bay@enron.com'
p392
sg14
g41
sg15
F0.06121804617923965
sg16
F-201641.0
sg17
F-82782.0
sg18
g42
sg19
F0.0
sg20
g43
sg21
F69.0
sg22
F0.0
sg23
I00
sg24
F400000.0
sg25
F63014.0
sg26
g44
sg27
g45
sg28
F145796.0
sg29
F239671.0
sg30
F827696.0
sg31
I00
sg32
g46
sg33
I6
sg34
F0.0
ssS'MCCARTY DANNY J'
p393
(dp394
g3
F1433.0
sg4
F0.0
sg5
F0.0
sg6
F0.009302325581395349
sg7
F0.0
sg8
F758931.0
sg9
F27.0
sg10
I00
sg11
F0.0
sg12
S'danny.mccarty@enron.com'
p395
sg14
F25.0
sg15
g53
sg16
F0.0
sg17
F0.0
sg18
F508.0
sg19
F0.0
sg20
F215.0
sg21
F0.0
sg22
F0.0
sg23
I00
sg24
F0.0
sg25
F758931.0
sg26
F1648.0
sg27
F2.0
sg28
F94556.0
sg29
F0.0
sg30
F0.0
sg31
I00
sg32
F0.017445917655268667
sg33
I0
sg34
F664375.0
ssS'FUGH JOHN L'
p396
(dp397
g3
g37
sg4
F50591.0
sg5
F50591.0
sg6
g38
sg7
F0.0
sg8
F226969.0
sg9
g39
sg10
I00
sg11
F0.0
sg12
g40
sg14
g41
sg15
F3.4863513273111817
sg16
F0.0
sg17
F0.0
sg18
g42
sg19
F0.0
sg20
g43
sg21
F0.0
sg22
F0.0
sg23
I00
sg24
F0.0
sg25
F176378.0
sg26
g44
sg27
g45
sg28
F0.0
sg29
F0.0
sg30
F50591.0
sg31
I00
sg32
g46
sg33
I1
sg34
F176378.0
ssS'FALLON JAMES B'
p398
(dp399
g3
F1755.0
sg4
F0.0
sg5
F3676340.0
sg6
F0.49333333333333335
sg7
F95924.0
sg8
F6008739.0
sg9
F79.0
sg10
I00
sg11
F374347.0
sg12
S'jim.fallon@enron.com'
p400
sg14
F42.0
sg15
F0.6344350631334424
sg16
F0.0
sg17
F0.0
sg18
F1604.0
sg19
F0.0
sg20
F75.0
sg21
F401481.0
sg22
F0.0
sg23
I00
sg24
F2500000.0
sg25
F2332399.0
sg26
F1830.0
sg27
F37.0
sg28
F1392142.0
sg29
F304588.0
sg30
F3676340.0
sg31
I00
sg32
F0.023931623931623933
sg33
I5
sg34
F940257.0
ssS'KOENIG MARK E'
p401
(dp402
g3
F2374.0
sg4
F0.0
sg5
F1587421.0
sg6
F0.2459016393442623
sg7
F127017.0
sg8
F3507476.0
sg9
F68.0
sg10
I01
sg11
F300000.0
sg12
S'mark.koenig@enron.com'
p403
sg14
F53.0
sg15
F1.2095436560307569
sg16
F0.0
sg17
F0.0
sg18
F2271.0
sg19
F0.0
sg20
F61.0
sg21
F150458.0
sg22
F0.0
sg23
I00
sg24
F700000.0
sg25
F1920055.0
sg26
F2435.0
sg27
F15.0
sg28
F1248318.0
sg29
F309946.0
sg30
F1587421.0
sg31
I00
sg32
F0.02232518955349621
sg33
I5
sg34
F671737.0
ssS'SAVAGE FRANK'
p404
(dp405
g3
g37
sg4
F0.0
sg5
F125034.0
sg6
g38
sg7
F0.0
sg8
F3750.0
sg9
g39
sg10
I00
sg11
F0.0
sg12
g40
sg14
g41
sg15
F0.0
sg16
F-121284.0
sg17
F0.0
sg18
g42
sg19
F0.0
sg20
g43
sg21
F0.0
sg22
F125034.0
sg23
I00
sg24
F0.0
sg25
F0.0
sg26
g44
sg27
g45
sg28
F0.0
sg29
F0.0
sg30
F3750.0
sg31
I00
sg32
g46
sg33
I2
sg34
F0.0
ssS'IZZO LAWRENCE L'
p406
(dp407
g3
F496.0
sg4
F0.0
sg5
F1979596.0
sg6
F0.2631578947368421
sg7
F28093.0
sg8
F7799576.0
sg9
F33.0
sg10
I00
sg11
F312500.0
sg12
S'larry.izzo@enron.com'
p408
sg14
F28.0
sg15
F2.9399837138486844
sg16
F0.0
sg17
F0.0
sg18
F437.0
sg19
F0.0
sg20
F19.0
sg21
F1553729.0
sg22
F0.0
sg23
I00
sg24
F0.0
sg25
F5819980.0
sg26
F515.0
sg27
F5.0
sg28
F3654808.0
sg29
F85274.0
sg30
F1979596.0
sg31
I00
sg32
F0.056451612903225805
sg33
I4
sg34
F2165172.0
ssS'TILNEY ELIZABETH A'
p409
(dp410
g3
F460.0
sg4
F0.0
sg5
F974393.0
sg6
F0.5789473684210527
sg7
F0.0
sg8
F1567435.0
sg9
F21.0
sg10
I00
sg11
F275000.0
sg12
S'elizabeth.tilney@enron.com'
p411
sg14
F10.0
sg15
F1.1987380861726222
sg16
F-575000.0
sg17
F0.0
sg18
F379.0
sg19
F0.0
sg20
F19.0
sg21
F152055.0
sg22
F0.0
sg23
I00
sg24
F300000.0
sg25
F1168042.0
sg26
F479.0
sg27
F11.0
sg28
F576792.0
sg29
F247338.0
sg30
F399393.0
sg31
I00
sg32
F0.021739130434782608
sg33
I5
sg34
F591250.0
ssS'MARTIN AMANDA K'
p412
(dp413
g3
F1522.0
sg4
F85430.0
sg5
F8407016.0
sg6
F0.0
sg7
F8211.0
sg8
F10477322.0
sg9
F8.0
sg10
I00
sg11
F5145434.0
sg12
S'a..martin@enron.com'
p414
sg14
F8.0
sg15
F0.24625931483893929
sg16
F0.0
sg17
F0.0
sg18
F477.0
sg19
F0.0
sg20
F230.0
sg21
F2818454.0
sg22
F0.0
sg23
I00
sg24
F0.0
sg25
F2070306.0
sg26
F1752.0
sg27
F0.0
sg28
F0.0
sg29
F349487.0
sg30
F8407016.0
sg31
I00
sg32
F0.005256241787122208
sg33
I5
sg34
F2070306.0
ssS'BUY RICHARD B'
p415
(dp416
g3
F3523.0
sg4
F649584.0
sg5
F3050564.0
sg6
F0.06742640075973409
sg7
F0.0
sg8
F5800172.0
sg9
F227.0
sg10
I00
sg11
F769862.0
sg12
S'rick.buy@enron.com'
p417
sg14
F156.0
sg15
F1.1291256305391397
sg16
F-694862.0
sg17
F0.0
sg18
F2333.0
sg19
F0.0
sg20
F1053.0
sg21
F400572.0
sg22
F0.0
sg23
I00
sg24
F900000.0
sg25
F3444470.0
sg26
F4576.0
sg27
F71.0
sg28
F901657.0
sg29
F330546.0
sg30
F2355702.0
sg31
I00
sg32
F0.04428044280442804
sg33
I6
sg34
F2542813.0
ssS'GRAMM WENDY L'
p418
(dp419
g3
g37
sg4
F0.0
sg5
F119292.0
sg6
g38
sg7
F0.0
sg8
F119292.0
sg9
g39
sg10
I00
sg11
F0.0
sg12
g40
sg14
g41
sg15
F0.0
sg16
F0.0
sg17
F0.0
sg18
g42
sg19
F0.0
sg20
g43
sg21
F0.0
sg22
F119292.0
sg23
I00
sg24
F0.0
sg25
F0.0
sg26
g44
sg27
g45
sg28
F0.0
sg29
F0.0
sg30
F119292.0
sg31
I00
sg32
g46
sg33
I1
sg34
F0.0
ssS'CAUSEY RICHARD A'
p420
(dp421
g3
F1892.0
sg4
F0.0
sg5
F2103758.0
sg6
F0.24489795918367346
sg7
F30674.0
sg8
F4370821.0
sg9
F70.0
sg10
I01
sg11
F350000.0
sg12
S'richard.causey@enron.com'
p422
sg14
F58.0
sg15
F1.1893302366526948
sg16
F-235000.0
sg17
F0.0
sg18
F1585.0
sg19
F0.0
sg20
F49.0
sg21
F307895.0
sg22
F0.0
sg23
I00
sg24
F1000000.0
sg25
F2502063.0
sg26
F1941.0
sg27
F12.0
sg28
F2502063.0
sg29
F415189.0
sg30
F1868758.0
sg31
I00
sg32
F0.0306553911205074
sg33
I6
sg34
F0.0
ssS'TAYLOR MITCHELL S'
p423
(dp424
g3
F533.0
sg4
F227449.0
sg5
F1092663.0
sg6
F0.0
sg7
F0.0
sg8
F4837711.0
sg9
F0.0
sg10
I00
sg11
F0.0
sg12
S'mitchell.taylor@enron.com'
p425
sg14
F0.0
sg15
F3.4274501836339293
sg16
F0.0
sg17
F0.0
sg18
F300.0
sg19
F0.0
sg20
F29.0
sg21
F0.0
sg22
F0.0
sg23
I00
sg24
F600000.0
sg25
F3745048.0
sg26
F562.0
sg27
F0.0
sg28
F563798.0
sg29
F265214.0
sg30
F1092663.0
sg31
I00
sg32
F0.0
sg33
I3
sg34
F3181250.0
ssS'DONAHUE JR JEFFREY M'
p426
(dp427
g3
F865.0
sg4
F0.0
sg5
F1175760.0
sg6
F0.5
sg7
F96268.0
sg8
F1956748.0
sg9
F199.0
sg10
I00
sg11
F0.0
sg12
S'jeff.donahue@enron.com'
p428
sg14
F188.0
sg15
F0.9193951146492482
sg16
F-300000.0
sg17
F0.0
sg18
F772.0
sg19
F0.0
sg20
F22.0
sg21
F891.0
sg22
F0.0
sg23
I00
sg24
F800000.0
sg25
F1080988.0
sg26
F887.0
sg27
F11.0
sg28
F315068.0
sg29
F278601.0
sg30
F875760.0
sg31
I00
sg32
F0.21734104046242775
sg33
I5
sg34
F765920.0
ss.