(lp0
S'poi'
p1
aS'logPayments'
p2
aS'total_stock_value'
p3
aS'total_benefits'
p4
aS'bonus'
p5
aS'salary'
p6
aS'exercised_stock_options'
p7
aS'from_poi_to_this_person'
p8
aS'from_this_person_to_poi'
p9
aS'shared_receipt_with_poi'
p10
aS'shared_poi_ratio'
p11
aS'poi_inbox_outbox_ratio'
p12
a.