(lp0
S'poi'
p1
aS'shared_receipt_with_poi'
p2
aS'bonus'
p3
aS'deferred_income'
p4
aS'exercised_stock_options'
p5
aS'salary'
p6
aS'total_stock_value'
p7
aS'outbox_poi_ratio'
p8
aS'payments_score'
p9
a.